	.section	__TEXT,__text,regular,pure_instructions
	.build_version macos, 15, 0	sdk_version 15, 4
	.file	0 "/Users/mk/dev/2025/llama.cpp" "ggml/src/ggml-cpu/ggml-cpu.c" md5 0xe972b6b2d173b15d3a3d7af54fc5d3e5
	.file	1 "/Applications/Xcode.app/Contents/Developer/Platforms/MacOSX.platform/Developer/SDKs/MacOSX.sdk/usr/include/sys/_types" "_int64_t.h" md5 0xe6d85c1a9e23dbf7518ce3b162aac800
	.file	2 "ggml/include" "ggml.h" md5 0x5fe9b5274cbbb60023e1cb4baae8c813
	.file	3 "ggml/include" "ggml-cpu.h" md5 0x4eeab1f77751cc32195c6c9a93d22bbf
	.file	4 "/Applications/Xcode.app/Contents/Developer/Toolchains/XcodeDefault.xctoolchain/usr/lib/clang/17/include" "__stddef_size_t.h" md5 0x2c44e821a2b1951cde2eb0fb2e656867
	.file	5 "/Applications/Xcode.app/Contents/Developer/Platforms/MacOSX.platform/Developer/SDKs/MacOSX.sdk/usr/include/_types" "_uint32_t.h" md5 0x0254eb80c6b9719ac45c3c1cf872109b
	.file	6 "ggml/src" "ggml-impl.h" md5 0x480ecd9193b8c5c8d1de985b450c308a
	.file	7 "ggml/src/ggml-cpu" "vec.h" md5 0x6931ec7043b231fdc8c9ec2f6d9333e8
	.file	8 "ggml/include" "ggml-backend.h" md5 0x8dce85b73f8e61a760fe47fc019bc6fd
	.file	9 "/Applications/Xcode.app/Contents/Developer/Toolchains/XcodeDefault.xctoolchain/usr/lib/clang/17/include" "stdatomic.h" md5 0xf17199a988fe91afffaf0f943ef87096
	.file	10 "/Applications/Xcode.app/Contents/Developer/Platforms/MacOSX.platform/Developer/SDKs/MacOSX.sdk/usr/include/sys" "qos.h" md5 0x69af54b11065700af9f6519e85c730ed
	.file	11 "/Applications/Xcode.app/Contents/Developer/Platforms/MacOSX.platform/Developer/SDKs/MacOSX.sdk/usr/include/sys/_types" "_int8_t.h" md5 0x5052dfe782b50fed2355b8f61a9e4fa9
	.file	12 "/Applications/Xcode.app/Contents/Developer/Platforms/MacOSX.platform/Developer/SDKs/MacOSX.sdk/usr/include/sys/_types" "_int16_t.h" md5 0x47ed3c3ac6f65bfec021ca2b7be18e7e
	.file	13 "/Applications/Xcode.app/Contents/Developer/Platforms/MacOSX.platform/Developer/SDKs/MacOSX.sdk/usr/include/sys/_types" "_int32_t.h" md5 0xd23e8406e80ee79983f28509c741fa17
	.file	14 "/Applications/Xcode.app/Contents/Developer/Platforms/MacOSX.platform/Developer/SDKs/MacOSX.sdk/usr/include/_types" "_uint16_t.h" md5 0xf0aa926da906b10566dd3171bf347ab7
	.file	15 "/Applications/Xcode.app/Contents/Developer/Platforms/MacOSX.platform/Developer/SDKs/MacOSX.sdk/usr/include/_types" "_uint8_t.h" md5 0x8b64ccf8c67b8c006b07b8daf1b49be5
	.file	16 "/Applications/Xcode.app/Contents/Developer/Platforms/MacOSX.platform/Developer/SDKs/MacOSX.sdk/usr/include/sys/_pthread" "_pthread_types.h" md5 0x4e2ea0e1af95894da0a6030a21a8ebee
	.file	17 "/Applications/Xcode.app/Contents/Developer/Platforms/MacOSX.platform/Developer/SDKs/MacOSX.sdk/usr/include/sys/_pthread" "_pthread_t.h" md5 0x086fc6d7dc3c67fdb87e7376555dcfd7
	.file	18 "/Applications/Xcode.app/Contents/Developer/Platforms/MacOSX.platform/Developer/SDKs/MacOSX.sdk/usr/include/sys/_pthread" "_pthread_mutex_t.h" md5 0x583a89b25a16f85ebbdf32f8d9f237ec
	.file	19 "/Applications/Xcode.app/Contents/Developer/Platforms/MacOSX.platform/Developer/SDKs/MacOSX.sdk/usr/include/sys/_pthread" "_pthread_cond_t.h" md5 0xa08af80ea124ebd303c431fa8c0affff
	.file	20 "ggml/src" "ggml-backend-impl.h" md5 0x38e65a1e4f01e842fba1263cba52b6ee
	.file	21 "/Applications/Xcode.app/Contents/Developer/Platforms/MacOSX.platform/Developer/SDKs/MacOSX.sdk/usr/include/sys/_types" "_uintptr_t.h" md5 0xe70ae655dd1b9d4ae0b1dcc073f5b7e4
	.globl	_ggml_get_type_traits_cpu       ; -- Begin function ggml_get_type_traits_cpu
	.p2align	2
_ggml_get_type_traits_cpu:              ; @ggml_get_type_traits_cpu
Lfunc_begin0:
	.loc	0 373 0                         ; ggml/src/ggml-cpu/ggml-cpu.c:373:0
	.cfi_startproc
; %bb.0:
	sub	sp, sp, #16
	.cfi_def_cfa_offset 16
	str	w0, [sp, #12]
Ltmp1:
	.loc	0 374 29 prologue_end           ; ggml/src/ggml-cpu/ggml-cpu.c:374:29
	ldr	w8, [sp, #12]
	mov	x9, x8
	.loc	0 374 13 is_stmt 0              ; ggml/src/ggml-cpu/ggml-cpu.c:374:13
	adrp	x8, _type_traits_cpu@PAGE
	add	x8, x8, _type_traits_cpu@PAGEOFF
	add	x0, x8, x9, lsl #5
	.loc	0 374 5 epilogue_begin          ; ggml/src/ggml-cpu/ggml-cpu.c:374:5
	add	sp, sp, #16
	ret
Ltmp2:
Lfunc_end0:
	.cfi_endproc
                                        ; -- End function
	.globl	_ggml_barrier                   ; -- Begin function ggml_barrier
	.p2align	2
_ggml_barrier:                          ; @ggml_barrier
Lfunc_begin1:
	.loc	0 524 0 is_stmt 1               ; ggml/src/ggml-cpu/ggml-cpu.c:524:0
	.cfi_startproc
; %bb.0:
	sub	sp, sp, #80
	stp	x29, x30, [sp, #64]             ; 16-byte Folded Spill
	add	x29, sp, #64
	.cfi_def_cfa w29, 16
	.cfi_offset w30, -8
	.cfi_offset w29, -16
	stur	x0, [x29, #-8]
Ltmp3:
	.loc	0 525 43 prologue_end           ; ggml/src/ggml-cpu/ggml-cpu.c:525:43
	ldur	x8, [x29, #-8]
	.loc	0 525 21 is_stmt 0              ; ggml/src/ggml-cpu/ggml-cpu.c:525:21
	ldr	w8, [x8, #348]
	stur	w8, [x29, #-16]
	ldur	w8, [x29, #-16]
	.loc	0 525 9                         ; ggml/src/ggml-cpu/ggml-cpu.c:525:9
	stur	w8, [x29, #-12]
Ltmp4:
	.loc	0 526 9 is_stmt 1               ; ggml/src/ggml-cpu/ggml-cpu.c:526:9
	ldur	w8, [x29, #-12]
Ltmp5:
	.loc	0 526 9 is_stmt 0               ; ggml/src/ggml-cpu/ggml-cpu.c:526:9
	subs	w8, w8, #1
	b.ne	LBB1_2
	b	LBB1_1
LBB1_1:
Ltmp6:
	.loc	0 527 9 is_stmt 1               ; ggml/src/ggml-cpu/ggml-cpu.c:527:9
	b	LBB1_8
Ltmp7:
LBB1_2:
	.loc	0 533 42                        ; ggml/src/ggml-cpu/ggml-cpu.c:533:42
	ldur	x8, [x29, #-8]
	.loc	0 533 20 is_stmt 0              ; ggml/src/ggml-cpu/ggml-cpu.c:533:20
	ldr	w8, [x8, #256]
	stur	w8, [x29, #-24]
	ldur	w8, [x29, #-24]
	.loc	0 533 9                         ; ggml/src/ggml-cpu/ggml-cpu.c:533:9
	stur	w8, [x29, #-20]
	.loc	0 536 48 is_stmt 1              ; ggml/src/ggml-cpu/ggml-cpu.c:536:48
	ldur	x8, [x29, #-8]
	.loc	0 536 52 is_stmt 0              ; ggml/src/ggml-cpu/ggml-cpu.c:536:52
	add	x9, x8, #192
	mov	w8, #1                          ; =0x1
	.loc	0 536 21                        ; ggml/src/ggml-cpu/ggml-cpu.c:536:21
	str	w8, [sp, #32]
	ldr	w8, [sp, #32]
	ldaddal	w8, w8, [x9]
	str	w8, [sp, #28]
	ldr	w8, [sp, #28]
	.loc	0 536 9                         ; ggml/src/ggml-cpu/ggml-cpu.c:536:9
	stur	w8, [x29, #-28]
Ltmp8:
	.loc	0 538 9 is_stmt 1               ; ggml/src/ggml-cpu/ggml-cpu.c:538:9
	ldur	w8, [x29, #-28]
	.loc	0 538 23 is_stmt 0              ; ggml/src/ggml-cpu/ggml-cpu.c:538:23
	ldur	w9, [x29, #-12]
	.loc	0 538 33                        ; ggml/src/ggml-cpu/ggml-cpu.c:538:33
	subs	w9, w9, #1
Ltmp9:
	.loc	0 538 9                         ; ggml/src/ggml-cpu/ggml-cpu.c:538:9
	subs	w8, w8, w9
	b.ne	LBB1_4
	b	LBB1_3
LBB1_3:
Ltmp10:
	.loc	0 540 32 is_stmt 1              ; ggml/src/ggml-cpu/ggml-cpu.c:540:32
	ldur	x9, [x29, #-8]
	.loc	0 540 9 is_stmt 0               ; ggml/src/ggml-cpu/ggml-cpu.c:540:9
	str	wzr, [sp, #24]
	ldr	w8, [sp, #24]
	str	w8, [x9, #192]
	.loc	0 543 36 is_stmt 1              ; ggml/src/ggml-cpu/ggml-cpu.c:543:36
	ldur	x8, [x29, #-8]
	.loc	0 543 40 is_stmt 0              ; ggml/src/ggml-cpu/ggml-cpu.c:543:40
	add	x9, x8, #256
	.loc	0 543 9                         ; ggml/src/ggml-cpu/ggml-cpu.c:543:9
	mov	w8, #1                          ; =0x1
	str	w8, [sp, #20]
	ldr	w8, [sp, #20]
	ldaddal	w8, w8, [x9]
	str	w8, [sp, #16]
	.loc	0 544 9 is_stmt 1               ; ggml/src/ggml-cpu/ggml-cpu.c:544:9
	b	LBB1_8
Ltmp11:
LBB1_4:
	.loc	0 548 5                         ; ggml/src/ggml-cpu/ggml-cpu.c:548:5
	b	LBB1_5
LBB1_5:                                 ; =>This Inner Loop Header: Depth=1
	.loc	0 548 34 is_stmt 0              ; ggml/src/ggml-cpu/ggml-cpu.c:548:34
	ldur	x8, [x29, #-8]
	.loc	0 548 12                        ; ggml/src/ggml-cpu/ggml-cpu.c:548:12
	ldr	w8, [x8, #256]
	str	w8, [sp, #12]
	ldr	w8, [sp, #12]
	.loc	0 548 81                        ; ggml/src/ggml-cpu/ggml-cpu.c:548:81
	ldur	w9, [x29, #-20]
	.loc	0 548 5                         ; ggml/src/ggml-cpu/ggml-cpu.c:548:5
	subs	w8, w8, w9
	b.ne	LBB1_7
	b	LBB1_6
LBB1_6:                                 ;   in Loop: Header=BB1_5 Depth=1
Ltmp12:
	.loc	0 549 9 is_stmt 1               ; ggml/src/ggml-cpu/ggml-cpu.c:549:9
	bl	_ggml_thread_cpu_relax
Ltmp13:
	.loc	0 548 5                         ; ggml/src/ggml-cpu/ggml-cpu.c:548:5
	b	LBB1_5
LBB1_7:
	.loc	0 557 5                         ; ggml/src/ggml-cpu/ggml-cpu.c:557:5
	dmb	ish
	.loc	0 560 1                         ; ggml/src/ggml-cpu/ggml-cpu.c:560:1
	b	LBB1_8
LBB1_8:
	.loc	0 560 1 epilogue_begin is_stmt 0 ; ggml/src/ggml-cpu/ggml-cpu.c:560:1
	ldp	x29, x30, [sp, #64]             ; 16-byte Folded Reload
	add	sp, sp, #80
	ret
Ltmp14:
Lfunc_end1:
	.cfi_endproc
                                        ; -- End function
	.p2align	2                               ; -- Begin function ggml_thread_cpu_relax
_ggml_thread_cpu_relax:                 ; @ggml_thread_cpu_relax
Lfunc_begin2:
	.cfi_startproc
; %bb.0:
	.loc	0 479 5 prologue_end is_stmt 1  ; ggml/src/ggml-cpu/ggml-cpu.c:479:5
	; InlineAsm Start
	yield
	; InlineAsm End
	.loc	0 480 1                         ; ggml/src/ggml-cpu/ggml-cpu.c:480:1
	ret
Ltmp15:
Lfunc_end2:
	.cfi_endproc
                                        ; -- End function
	.globl	_ggml_numa_init                 ; -- Begin function ggml_numa_init
	.p2align	2
_ggml_numa_init:                        ; @ggml_numa_init
Lfunc_begin3:
	.loc	0 577 0                         ; ggml/src/ggml-cpu/ggml-cpu.c:577:0
	.cfi_startproc
; %bb.0:
	sub	sp, sp, #32
	stp	x29, x30, [sp, #16]             ; 16-byte Folded Spill
	add	x29, sp, #16
	.cfi_def_cfa w29, 16
	.cfi_offset w30, -8
	.cfi_offset w29, -16
	stur	w0, [x29, #-4]
Ltmp16:
	.loc	0 578 22 prologue_end           ; ggml/src/ggml-cpu/ggml-cpu.c:578:22
	mov	x9, #16420                      ; =0x4024
	adrp	x8, _g_state@PAGE
	add	x8, x8, _g_state@PAGEOFF
	ldr	w8, [x8, x9]
Ltmp17:
	.loc	0 578 9 is_stmt 0               ; ggml/src/ggml-cpu/ggml-cpu.c:578:9
	subs	w8, w8, #0
	b.ls	LBB3_2
	b	LBB3_1
LBB3_1:
Ltmp18:
	.loc	0 579 17 is_stmt 1              ; ggml/src/ggml-cpu/ggml-cpu.c:579:17
	adrp	x8, ___stderrp@GOTPAGE
	ldr	x8, [x8, ___stderrp@GOTPAGEOFF]
	ldr	x0, [x8]
	.loc	0 579 9 is_stmt 0               ; ggml/src/ggml-cpu/ggml-cpu.c:579:9
	adrp	x1, l_.str@PAGE
	add	x1, x1, l_.str@PAGEOFF
	bl	_fprintf
	.loc	0 581 9 is_stmt 1               ; ggml/src/ggml-cpu/ggml-cpu.c:581:9
	b	LBB3_3
Ltmp19:
LBB3_2:
	.loc	0 663 1                         ; ggml/src/ggml-cpu/ggml-cpu.c:663:1
	b	LBB3_3
LBB3_3:
	.loc	0 663 1 epilogue_begin is_stmt 0 ; ggml/src/ggml-cpu/ggml-cpu.c:663:1
	ldp	x29, x30, [sp, #16]             ; 16-byte Folded Reload
	add	sp, sp, #32
	ret
Ltmp20:
Lfunc_end3:
	.cfi_endproc
                                        ; -- End function
	.globl	_ggml_is_numa                   ; -- Begin function ggml_is_numa
	.p2align	2
_ggml_is_numa:                          ; @ggml_is_numa
Lfunc_begin4:
	.cfi_startproc
; %bb.0:
	.loc	0 666 25 prologue_end is_stmt 1 ; ggml/src/ggml-cpu/ggml-cpu.c:666:25
	mov	x9, #16420                      ; =0x4024
	adrp	x8, _g_state@PAGE
	add	x8, x8, _g_state@PAGEOFF
	ldr	w8, [x8, x9]
	.loc	0 666 33 is_stmt 0              ; ggml/src/ggml-cpu/ggml-cpu.c:666:33
	subs	w8, w8, #1
	cset	w0, hi
	.loc	0 666 5                         ; ggml/src/ggml-cpu/ggml-cpu.c:666:5
	ret
Ltmp21:
Lfunc_end4:
	.cfi_endproc
                                        ; -- End function
	.globl	_ggml_new_i32                   ; -- Begin function ggml_new_i32
	.p2align	2
_ggml_new_i32:                          ; @ggml_new_i32
Lfunc_begin5:
	.loc	0 755 0 is_stmt 1               ; ggml/src/ggml-cpu/ggml-cpu.c:755:0
	.cfi_startproc
; %bb.0:
	sub	sp, sp, #48
	stp	x29, x30, [sp, #32]             ; 16-byte Folded Spill
	add	x29, sp, #32
	.cfi_def_cfa w29, 16
	.cfi_offset w30, -8
	.cfi_offset w29, -16
	stur	x0, [x29, #-8]
	stur	w1, [x29, #-12]
Ltmp22:
	.loc	0 756 5 prologue_end            ; ggml/src/ggml-cpu/ggml-cpu.c:756:5
	ldur	x0, [x29, #-8]
	bl	_ggml_get_no_alloc
Ltmp23:
	.loc	0 756 5 is_stmt 0               ; ggml/src/ggml-cpu/ggml-cpu.c:756:5
	tbz	w0, #0, LBB5_2
	b	LBB5_1
LBB5_1:
Ltmp24:
	.loc	0 756 5                         ; ggml/src/ggml-cpu/ggml-cpu.c:756:5
	mov	x9, sp
	adrp	x8, l_.str.3@PAGE
	add	x8, x8, l_.str.3@PAGEOFF
	str	x8, [x9]
	adrp	x0, l_.str.1@PAGE
	add	x0, x0, l_.str.1@PAGEOFF
	mov	w1, #756                        ; =0x2f4
	adrp	x2, l_.str.2@PAGE
	add	x2, x2, l_.str.2@PAGEOFF
	bl	_ggml_abort
Ltmp25:
LBB5_2:
	.loc	0 758 54 is_stmt 1              ; ggml/src/ggml-cpu/ggml-cpu.c:758:54
	ldur	x0, [x29, #-8]
	.loc	0 758 35 is_stmt 0              ; ggml/src/ggml-cpu/ggml-cpu.c:758:35
	mov	w1, #26                         ; =0x1a
	mov	x2, #1                          ; =0x1
	bl	_ggml_new_tensor_1d
	.loc	0 758 26                        ; ggml/src/ggml-cpu/ggml-cpu.c:758:26
	str	x0, [sp, #8]
	.loc	0 760 18 is_stmt 1              ; ggml/src/ggml-cpu/ggml-cpu.c:760:18
	ldr	x0, [sp, #8]
	.loc	0 760 26 is_stmt 0              ; ggml/src/ggml-cpu/ggml-cpu.c:760:26
	ldur	w1, [x29, #-12]
	.loc	0 760 5                         ; ggml/src/ggml-cpu/ggml-cpu.c:760:5
	bl	_ggml_set_i32
	.loc	0 762 12 is_stmt 1              ; ggml/src/ggml-cpu/ggml-cpu.c:762:12
	ldr	x0, [sp, #8]
	.loc	0 762 5 epilogue_begin is_stmt 0 ; ggml/src/ggml-cpu/ggml-cpu.c:762:5
	ldp	x29, x30, [sp, #32]             ; 16-byte Folded Reload
	add	sp, sp, #48
	ret
Ltmp26:
Lfunc_end5:
	.cfi_endproc
                                        ; -- End function
	.globl	_ggml_set_i32                   ; -- Begin function ggml_set_i32
	.p2align	2
_ggml_set_i32:                          ; @ggml_set_i32
Lfunc_begin6:
	.loc	0 775 0 is_stmt 1               ; ggml/src/ggml-cpu/ggml-cpu.c:775:0
	.cfi_startproc
; %bb.0:
	sub	sp, sp, #128
	stp	x29, x30, [sp, #112]            ; 16-byte Folded Spill
	add	x29, sp, #112
	.cfi_def_cfa w29, 16
	.cfi_offset w30, -8
	.cfi_offset w29, -16
	stur	x0, [x29, #-8]
	stur	w1, [x29, #-12]
Ltmp27:
	.loc	0 776 34 prologue_end           ; ggml/src/ggml-cpu/ggml-cpu.c:776:34
	ldur	x0, [x29, #-8]
	.loc	0 776 23 is_stmt 0              ; ggml/src/ggml-cpu/ggml-cpu.c:776:23
	bl	_ggml_nrows
	.loc	0 776 15                        ; ggml/src/ggml-cpu/ggml-cpu.c:776:15
	mov	x8, x0
	stur	w8, [x29, #-16]
	.loc	0 777 23 is_stmt 1              ; ggml/src/ggml-cpu/ggml-cpu.c:777:23
	ldur	x8, [x29, #-8]
	ldr	x8, [x8, #16]
                                        ; kill: def $w8 killed $w8 killed $x8
	.loc	0 777 15 is_stmt 0              ; ggml/src/ggml-cpu/ggml-cpu.c:777:15
	stur	w8, [x29, #-20]
	.loc	0 778 23 is_stmt 1              ; ggml/src/ggml-cpu/ggml-cpu.c:778:23
	ldur	x8, [x29, #-8]
	ldr	x8, [x8, #56]
	.loc	0 778 18 is_stmt 0              ; ggml/src/ggml-cpu/ggml-cpu.c:778:18
	stur	x8, [x29, #-32]
	.loc	0 780 25 is_stmt 1              ; ggml/src/ggml-cpu/ggml-cpu.c:780:25
	ldur	x8, [x29, #-8]
	.loc	0 780 33 is_stmt 0              ; ggml/src/ggml-cpu/ggml-cpu.c:780:33
	ldr	x8, [x8, #248]
	.loc	0 780 18                        ; ggml/src/ggml-cpu/ggml-cpu.c:780:18
	stur	x8, [x29, #-40]
	.loc	0 782 13 is_stmt 1              ; ggml/src/ggml-cpu/ggml-cpu.c:782:13
	ldur	x8, [x29, #-8]
	.loc	0 782 21 is_stmt 0              ; ggml/src/ggml-cpu/ggml-cpu.c:782:21
	ldr	w8, [x8]
	str	w8, [sp, #40]                   ; 4-byte Folded Spill
	.loc	0 782 5                         ; ggml/src/ggml-cpu/ggml-cpu.c:782:5
	cbz	w8, LBB6_31
	b	LBB6_1
LBB6_1:
	.loc	0 0 5                           ; ggml/src/ggml-cpu/ggml-cpu.c:0:5
	ldr	w8, [sp, #40]                   ; 4-byte Folded Reload
	.loc	0 782 5                         ; ggml/src/ggml-cpu/ggml-cpu.c:782:5
	subs	w8, w8, #1
	b.eq	LBB6_21
	b	LBB6_2
LBB6_2:
	.loc	0 0 5                           ; ggml/src/ggml-cpu/ggml-cpu.c:0:5
	ldr	w8, [sp, #40]                   ; 4-byte Folded Reload
	.loc	0 782 5                         ; ggml/src/ggml-cpu/ggml-cpu.c:782:5
	subs	w8, w8, #24
	b.eq	LBB6_6
	b	LBB6_3
LBB6_3:
	.loc	0 0 5                           ; ggml/src/ggml-cpu/ggml-cpu.c:0:5
	ldr	w8, [sp, #40]                   ; 4-byte Folded Reload
	.loc	0 782 5                         ; ggml/src/ggml-cpu/ggml-cpu.c:782:5
	subs	w8, w8, #25
	b.eq	LBB6_11
	b	LBB6_4
LBB6_4:
	.loc	0 0 5                           ; ggml/src/ggml-cpu/ggml-cpu.c:0:5
	ldr	w8, [sp, #40]                   ; 4-byte Folded Reload
	.loc	0 782 5                         ; ggml/src/ggml-cpu/ggml-cpu.c:782:5
	subs	w8, w8, #26
	b.eq	LBB6_16
	b	LBB6_5
LBB6_5:
	.loc	0 0 5                           ; ggml/src/ggml-cpu/ggml-cpu.c:0:5
	ldr	w8, [sp, #40]                   ; 4-byte Folded Reload
	.loc	0 782 5                         ; ggml/src/ggml-cpu/ggml-cpu.c:782:5
	subs	w8, w8, #30
	b.eq	LBB6_26
	b	LBB6_36
LBB6_6:
Ltmp28:
	.loc	0 786 26 is_stmt 1              ; ggml/src/ggml-cpu/ggml-cpu.c:786:26
	stur	wzr, [x29, #-44]
	.loc	0 786 22 is_stmt 0              ; ggml/src/ggml-cpu/ggml-cpu.c:786:22
	b	LBB6_7
LBB6_7:                                 ; =>This Inner Loop Header: Depth=1
Ltmp29:
	.loc	0 786 33                        ; ggml/src/ggml-cpu/ggml-cpu.c:786:33
	ldur	w8, [x29, #-44]
	.loc	0 786 37                        ; ggml/src/ggml-cpu/ggml-cpu.c:786:37
	ldur	w9, [x29, #-16]
Ltmp30:
	.loc	0 786 17                        ; ggml/src/ggml-cpu/ggml-cpu.c:786:17
	subs	w8, w8, w9
	b.ge	LBB6_10
	b	LBB6_8
LBB6_8:                                 ;   in Loop: Header=BB6_7 Depth=1
Ltmp31:
	.loc	0 787 37 is_stmt 1              ; ggml/src/ggml-cpu/ggml-cpu.c:787:37
	ldur	w0, [x29, #-20]
	.loc	0 787 52 is_stmt 0              ; ggml/src/ggml-cpu/ggml-cpu.c:787:52
	ldur	x8, [x29, #-40]
	.loc	0 787 59                        ; ggml/src/ggml-cpu/ggml-cpu.c:787:59
	ldursw	x9, [x29, #-44]
	.loc	0 787 61                        ; ggml/src/ggml-cpu/ggml-cpu.c:787:61
	ldur	x10, [x29, #-32]
	.loc	0 787 60                        ; ggml/src/ggml-cpu/ggml-cpu.c:787:60
	mul	x9, x9, x10
	.loc	0 787 57                        ; ggml/src/ggml-cpu/ggml-cpu.c:787:57
	add	x1, x8, x9
	.loc	0 787 66                        ; ggml/src/ggml-cpu/ggml-cpu.c:787:66
	ldur	w8, [x29, #-12]
	.loc	0 787 21                        ; ggml/src/ggml-cpu/ggml-cpu.c:787:21
	sxtb	w2, w8
	bl	_ggml_vec_set_i8
	.loc	0 788 17 is_stmt 1              ; ggml/src/ggml-cpu/ggml-cpu.c:788:17
	b	LBB6_9
Ltmp32:
LBB6_9:                                 ;   in Loop: Header=BB6_7 Depth=1
	.loc	0 786 41                        ; ggml/src/ggml-cpu/ggml-cpu.c:786:41
	ldur	w8, [x29, #-44]
	add	w8, w8, #1
	stur	w8, [x29, #-44]
	.loc	0 786 17 is_stmt 0              ; ggml/src/ggml-cpu/ggml-cpu.c:786:17
	b	LBB6_7
Ltmp33:
LBB6_10:
	.loc	0 789 15 is_stmt 1              ; ggml/src/ggml-cpu/ggml-cpu.c:789:15
	b	LBB6_37
LBB6_11:
Ltmp34:
	.loc	0 793 26                        ; ggml/src/ggml-cpu/ggml-cpu.c:793:26
	stur	wzr, [x29, #-48]
	.loc	0 793 22 is_stmt 0              ; ggml/src/ggml-cpu/ggml-cpu.c:793:22
	b	LBB6_12
LBB6_12:                                ; =>This Inner Loop Header: Depth=1
Ltmp35:
	.loc	0 793 33                        ; ggml/src/ggml-cpu/ggml-cpu.c:793:33
	ldur	w8, [x29, #-48]
	.loc	0 793 37                        ; ggml/src/ggml-cpu/ggml-cpu.c:793:37
	ldur	w9, [x29, #-16]
Ltmp36:
	.loc	0 793 17                        ; ggml/src/ggml-cpu/ggml-cpu.c:793:17
	subs	w8, w8, w9
	b.ge	LBB6_15
	b	LBB6_13
LBB6_13:                                ;   in Loop: Header=BB6_12 Depth=1
Ltmp37:
	.loc	0 794 38 is_stmt 1              ; ggml/src/ggml-cpu/ggml-cpu.c:794:38
	ldur	w0, [x29, #-20]
	.loc	0 794 54 is_stmt 0              ; ggml/src/ggml-cpu/ggml-cpu.c:794:54
	ldur	x8, [x29, #-40]
	.loc	0 794 61                        ; ggml/src/ggml-cpu/ggml-cpu.c:794:61
	ldursw	x9, [x29, #-48]
	.loc	0 794 63                        ; ggml/src/ggml-cpu/ggml-cpu.c:794:63
	ldur	x10, [x29, #-32]
	.loc	0 794 62                        ; ggml/src/ggml-cpu/ggml-cpu.c:794:62
	mul	x9, x9, x10
	.loc	0 794 59                        ; ggml/src/ggml-cpu/ggml-cpu.c:794:59
	add	x1, x8, x9
	.loc	0 794 68                        ; ggml/src/ggml-cpu/ggml-cpu.c:794:68
	ldur	w8, [x29, #-12]
	.loc	0 794 21                        ; ggml/src/ggml-cpu/ggml-cpu.c:794:21
	sxth	w2, w8
	bl	_ggml_vec_set_i16
	.loc	0 795 17 is_stmt 1              ; ggml/src/ggml-cpu/ggml-cpu.c:795:17
	b	LBB6_14
Ltmp38:
LBB6_14:                                ;   in Loop: Header=BB6_12 Depth=1
	.loc	0 793 41                        ; ggml/src/ggml-cpu/ggml-cpu.c:793:41
	ldur	w8, [x29, #-48]
	add	w8, w8, #1
	stur	w8, [x29, #-48]
	.loc	0 793 17 is_stmt 0              ; ggml/src/ggml-cpu/ggml-cpu.c:793:17
	b	LBB6_12
Ltmp39:
LBB6_15:
	.loc	0 796 15 is_stmt 1              ; ggml/src/ggml-cpu/ggml-cpu.c:796:15
	b	LBB6_37
LBB6_16:
Ltmp40:
	.loc	0 800 26                        ; ggml/src/ggml-cpu/ggml-cpu.c:800:26
	stur	wzr, [x29, #-52]
	.loc	0 800 22 is_stmt 0              ; ggml/src/ggml-cpu/ggml-cpu.c:800:22
	b	LBB6_17
LBB6_17:                                ; =>This Inner Loop Header: Depth=1
Ltmp41:
	.loc	0 800 33                        ; ggml/src/ggml-cpu/ggml-cpu.c:800:33
	ldur	w8, [x29, #-52]
	.loc	0 800 37                        ; ggml/src/ggml-cpu/ggml-cpu.c:800:37
	ldur	w9, [x29, #-16]
Ltmp42:
	.loc	0 800 17                        ; ggml/src/ggml-cpu/ggml-cpu.c:800:17
	subs	w8, w8, w9
	b.ge	LBB6_20
	b	LBB6_18
LBB6_18:                                ;   in Loop: Header=BB6_17 Depth=1
Ltmp43:
	.loc	0 801 38 is_stmt 1              ; ggml/src/ggml-cpu/ggml-cpu.c:801:38
	ldur	w0, [x29, #-20]
	.loc	0 801 54 is_stmt 0              ; ggml/src/ggml-cpu/ggml-cpu.c:801:54
	ldur	x8, [x29, #-40]
	.loc	0 801 61                        ; ggml/src/ggml-cpu/ggml-cpu.c:801:61
	ldursw	x9, [x29, #-52]
	.loc	0 801 63                        ; ggml/src/ggml-cpu/ggml-cpu.c:801:63
	ldur	x10, [x29, #-32]
	.loc	0 801 62                        ; ggml/src/ggml-cpu/ggml-cpu.c:801:62
	mul	x9, x9, x10
	.loc	0 801 59                        ; ggml/src/ggml-cpu/ggml-cpu.c:801:59
	add	x1, x8, x9
	.loc	0 801 68                        ; ggml/src/ggml-cpu/ggml-cpu.c:801:68
	ldur	w2, [x29, #-12]
	.loc	0 801 21                        ; ggml/src/ggml-cpu/ggml-cpu.c:801:21
	bl	_ggml_vec_set_i32
	.loc	0 802 17 is_stmt 1              ; ggml/src/ggml-cpu/ggml-cpu.c:802:17
	b	LBB6_19
Ltmp44:
LBB6_19:                                ;   in Loop: Header=BB6_17 Depth=1
	.loc	0 800 41                        ; ggml/src/ggml-cpu/ggml-cpu.c:800:41
	ldur	w8, [x29, #-52]
	add	w8, w8, #1
	stur	w8, [x29, #-52]
	.loc	0 800 17 is_stmt 0              ; ggml/src/ggml-cpu/ggml-cpu.c:800:17
	b	LBB6_17
Ltmp45:
LBB6_20:
	.loc	0 803 15 is_stmt 1              ; ggml/src/ggml-cpu/ggml-cpu.c:803:15
	b	LBB6_37
LBB6_21:
Ltmp46:
	.loc	0 807 26                        ; ggml/src/ggml-cpu/ggml-cpu.c:807:26
	str	wzr, [sp, #56]
	.loc	0 807 22 is_stmt 0              ; ggml/src/ggml-cpu/ggml-cpu.c:807:22
	b	LBB6_22
LBB6_22:                                ; =>This Inner Loop Header: Depth=1
Ltmp47:
	.loc	0 807 33                        ; ggml/src/ggml-cpu/ggml-cpu.c:807:33
	ldr	w8, [sp, #56]
	.loc	0 807 37                        ; ggml/src/ggml-cpu/ggml-cpu.c:807:37
	ldur	w9, [x29, #-16]
Ltmp48:
	.loc	0 807 17                        ; ggml/src/ggml-cpu/ggml-cpu.c:807:17
	subs	w8, w8, w9
	b.ge	LBB6_25
	b	LBB6_23
LBB6_23:                                ;   in Loop: Header=BB6_22 Depth=1
Ltmp49:
	.loc	0 808 38 is_stmt 1              ; ggml/src/ggml-cpu/ggml-cpu.c:808:38
	ldur	w8, [x29, #-20]
	str	w8, [sp, #36]                   ; 4-byte Folded Spill
	.loc	0 808 58 is_stmt 0              ; ggml/src/ggml-cpu/ggml-cpu.c:808:58
	ldur	x8, [x29, #-40]
	.loc	0 808 65                        ; ggml/src/ggml-cpu/ggml-cpu.c:808:65
	ldrsw	x9, [sp, #56]
	.loc	0 808 67                        ; ggml/src/ggml-cpu/ggml-cpu.c:808:67
	ldur	x10, [x29, #-32]
	.loc	0 808 66                        ; ggml/src/ggml-cpu/ggml-cpu.c:808:66
	mul	x9, x9, x10
	.loc	0 808 63                        ; ggml/src/ggml-cpu/ggml-cpu.c:808:63
	add	x8, x8, x9
	str	x8, [sp, #24]                   ; 8-byte Folded Spill
	.loc	0 808 72                        ; ggml/src/ggml-cpu/ggml-cpu.c:808:72
	ldur	s0, [x29, #-12]
	scvtf	s0, s0
	bl	_ggml_compute_fp32_to_fp16
	ldr	x1, [sp, #24]                   ; 8-byte Folded Reload
	mov	x2, x0
	ldr	w0, [sp, #36]                   ; 4-byte Folded Reload
	.loc	0 808 21                        ; ggml/src/ggml-cpu/ggml-cpu.c:808:21
	bl	_ggml_vec_set_f16
	.loc	0 809 17 is_stmt 1              ; ggml/src/ggml-cpu/ggml-cpu.c:809:17
	b	LBB6_24
Ltmp50:
LBB6_24:                                ;   in Loop: Header=BB6_22 Depth=1
	.loc	0 807 41                        ; ggml/src/ggml-cpu/ggml-cpu.c:807:41
	ldr	w8, [sp, #56]
	add	w8, w8, #1
	str	w8, [sp, #56]
	.loc	0 807 17 is_stmt 0              ; ggml/src/ggml-cpu/ggml-cpu.c:807:17
	b	LBB6_22
Ltmp51:
LBB6_25:
	.loc	0 810 15 is_stmt 1              ; ggml/src/ggml-cpu/ggml-cpu.c:810:15
	b	LBB6_37
LBB6_26:
Ltmp52:
	.loc	0 814 26                        ; ggml/src/ggml-cpu/ggml-cpu.c:814:26
	str	wzr, [sp, #52]
	.loc	0 814 22 is_stmt 0              ; ggml/src/ggml-cpu/ggml-cpu.c:814:22
	b	LBB6_27
LBB6_27:                                ; =>This Inner Loop Header: Depth=1
Ltmp53:
	.loc	0 814 33                        ; ggml/src/ggml-cpu/ggml-cpu.c:814:33
	ldr	w8, [sp, #52]
	.loc	0 814 37                        ; ggml/src/ggml-cpu/ggml-cpu.c:814:37
	ldur	w9, [x29, #-16]
Ltmp54:
	.loc	0 814 17                        ; ggml/src/ggml-cpu/ggml-cpu.c:814:17
	subs	w8, w8, w9
	b.ge	LBB6_30
	b	LBB6_28
LBB6_28:                                ;   in Loop: Header=BB6_27 Depth=1
Ltmp55:
	.loc	0 815 39 is_stmt 1              ; ggml/src/ggml-cpu/ggml-cpu.c:815:39
	ldur	w8, [x29, #-20]
	str	w8, [sp, #20]                   ; 4-byte Folded Spill
	.loc	0 815 59 is_stmt 0              ; ggml/src/ggml-cpu/ggml-cpu.c:815:59
	ldur	x8, [x29, #-40]
	.loc	0 815 66                        ; ggml/src/ggml-cpu/ggml-cpu.c:815:66
	ldrsw	x9, [sp, #52]
	.loc	0 815 68                        ; ggml/src/ggml-cpu/ggml-cpu.c:815:68
	ldur	x10, [x29, #-32]
	.loc	0 815 67                        ; ggml/src/ggml-cpu/ggml-cpu.c:815:67
	mul	x9, x9, x10
	.loc	0 815 64                        ; ggml/src/ggml-cpu/ggml-cpu.c:815:64
	add	x8, x8, x9
	str	x8, [sp, #8]                    ; 8-byte Folded Spill
	.loc	0 815 73                        ; ggml/src/ggml-cpu/ggml-cpu.c:815:73
	ldur	s0, [x29, #-12]
	scvtf	s0, s0
	bl	_ggml_compute_fp32_to_bf16
	ldr	x1, [sp, #8]                    ; 8-byte Folded Reload
	mov	x8, x0
	ldr	w0, [sp, #20]                   ; 4-byte Folded Reload
	strh	w8, [sp, #50]
	.loc	0 815 21                        ; ggml/src/ggml-cpu/ggml-cpu.c:815:21
	ldrh	w8, [sp, #50]
	mov	x2, x8
	bl	_ggml_vec_set_bf16
	.loc	0 816 17 is_stmt 1              ; ggml/src/ggml-cpu/ggml-cpu.c:816:17
	b	LBB6_29
Ltmp56:
LBB6_29:                                ;   in Loop: Header=BB6_27 Depth=1
	.loc	0 814 41                        ; ggml/src/ggml-cpu/ggml-cpu.c:814:41
	ldr	w8, [sp, #52]
	add	w8, w8, #1
	str	w8, [sp, #52]
	.loc	0 814 17 is_stmt 0              ; ggml/src/ggml-cpu/ggml-cpu.c:814:17
	b	LBB6_27
Ltmp57:
LBB6_30:
	.loc	0 817 15 is_stmt 1              ; ggml/src/ggml-cpu/ggml-cpu.c:817:15
	b	LBB6_37
LBB6_31:
Ltmp58:
	.loc	0 821 26                        ; ggml/src/ggml-cpu/ggml-cpu.c:821:26
	str	wzr, [sp, #44]
	.loc	0 821 22 is_stmt 0              ; ggml/src/ggml-cpu/ggml-cpu.c:821:22
	b	LBB6_32
LBB6_32:                                ; =>This Inner Loop Header: Depth=1
Ltmp59:
	.loc	0 821 33                        ; ggml/src/ggml-cpu/ggml-cpu.c:821:33
	ldr	w8, [sp, #44]
	.loc	0 821 37                        ; ggml/src/ggml-cpu/ggml-cpu.c:821:37
	ldur	w9, [x29, #-16]
Ltmp60:
	.loc	0 821 17                        ; ggml/src/ggml-cpu/ggml-cpu.c:821:17
	subs	w8, w8, w9
	b.ge	LBB6_35
	b	LBB6_33
LBB6_33:                                ;   in Loop: Header=BB6_32 Depth=1
Ltmp61:
	.loc	0 822 38 is_stmt 1              ; ggml/src/ggml-cpu/ggml-cpu.c:822:38
	ldur	w0, [x29, #-20]
	.loc	0 822 52 is_stmt 0              ; ggml/src/ggml-cpu/ggml-cpu.c:822:52
	ldur	x8, [x29, #-40]
	.loc	0 822 59                        ; ggml/src/ggml-cpu/ggml-cpu.c:822:59
	ldrsw	x9, [sp, #44]
	.loc	0 822 61                        ; ggml/src/ggml-cpu/ggml-cpu.c:822:61
	ldur	x10, [x29, #-32]
	.loc	0 822 60                        ; ggml/src/ggml-cpu/ggml-cpu.c:822:60
	mul	x9, x9, x10
	.loc	0 822 57                        ; ggml/src/ggml-cpu/ggml-cpu.c:822:57
	add	x1, x8, x9
	.loc	0 822 66                        ; ggml/src/ggml-cpu/ggml-cpu.c:822:66
	ldur	s0, [x29, #-12]
	scvtf	s0, s0
	.loc	0 822 21                        ; ggml/src/ggml-cpu/ggml-cpu.c:822:21
	bl	_ggml_vec_set_f32
	.loc	0 823 17 is_stmt 1              ; ggml/src/ggml-cpu/ggml-cpu.c:823:17
	b	LBB6_34
Ltmp62:
LBB6_34:                                ;   in Loop: Header=BB6_32 Depth=1
	.loc	0 821 41                        ; ggml/src/ggml-cpu/ggml-cpu.c:821:41
	ldr	w8, [sp, #44]
	add	w8, w8, #1
	str	w8, [sp, #44]
	.loc	0 821 17 is_stmt 0              ; ggml/src/ggml-cpu/ggml-cpu.c:821:17
	b	LBB6_32
Ltmp63:
LBB6_35:
	.loc	0 824 15 is_stmt 1              ; ggml/src/ggml-cpu/ggml-cpu.c:824:15
	b	LBB6_37
LBB6_36:
Ltmp64:
	.loc	0 827 17                        ; ggml/src/ggml-cpu/ggml-cpu.c:827:17
	adrp	x0, l_.str.1@PAGE
	add	x0, x0, l_.str.1@PAGEOFF
	mov	w1, #827                        ; =0x33b
	adrp	x2, l_.str.4@PAGE
	add	x2, x2, l_.str.4@PAGEOFF
	bl	_ggml_abort
Ltmp65:
LBB6_37:
	.loc	0 831 12                        ; ggml/src/ggml-cpu/ggml-cpu.c:831:12
	ldur	x0, [x29, #-8]
	.loc	0 831 5 epilogue_begin is_stmt 0 ; ggml/src/ggml-cpu/ggml-cpu.c:831:5
	ldp	x29, x30, [sp, #112]            ; 16-byte Folded Reload
	add	sp, sp, #128
	ret
Ltmp66:
Lfunc_end6:
	.cfi_endproc
                                        ; -- End function
	.globl	_ggml_new_f32                   ; -- Begin function ggml_new_f32
	.p2align	2
_ggml_new_f32:                          ; @ggml_new_f32
Lfunc_begin7:
	.loc	0 765 0 is_stmt 1               ; ggml/src/ggml-cpu/ggml-cpu.c:765:0
	.cfi_startproc
; %bb.0:
	sub	sp, sp, #48
	stp	x29, x30, [sp, #32]             ; 16-byte Folded Spill
	add	x29, sp, #32
	.cfi_def_cfa w29, 16
	.cfi_offset w30, -8
	.cfi_offset w29, -16
	stur	x0, [x29, #-8]
	stur	s0, [x29, #-12]
Ltmp67:
	.loc	0 766 5 prologue_end            ; ggml/src/ggml-cpu/ggml-cpu.c:766:5
	ldur	x0, [x29, #-8]
	bl	_ggml_get_no_alloc
Ltmp68:
	.loc	0 766 5 is_stmt 0               ; ggml/src/ggml-cpu/ggml-cpu.c:766:5
	tbz	w0, #0, LBB7_2
	b	LBB7_1
LBB7_1:
Ltmp69:
	.loc	0 766 5                         ; ggml/src/ggml-cpu/ggml-cpu.c:766:5
	mov	x9, sp
	adrp	x8, l_.str.3@PAGE
	add	x8, x8, l_.str.3@PAGEOFF
	str	x8, [x9]
	adrp	x0, l_.str.1@PAGE
	add	x0, x0, l_.str.1@PAGEOFF
	mov	w1, #766                        ; =0x2fe
	adrp	x2, l_.str.2@PAGE
	add	x2, x2, l_.str.2@PAGEOFF
	bl	_ggml_abort
Ltmp70:
LBB7_2:
	.loc	0 768 54 is_stmt 1              ; ggml/src/ggml-cpu/ggml-cpu.c:768:54
	ldur	x0, [x29, #-8]
	.loc	0 768 35 is_stmt 0              ; ggml/src/ggml-cpu/ggml-cpu.c:768:35
	mov	w1, #0                          ; =0x0
	mov	x2, #1                          ; =0x1
	bl	_ggml_new_tensor_1d
	.loc	0 768 26                        ; ggml/src/ggml-cpu/ggml-cpu.c:768:26
	str	x0, [sp, #8]
	.loc	0 770 18 is_stmt 1              ; ggml/src/ggml-cpu/ggml-cpu.c:770:18
	ldr	x0, [sp, #8]
	.loc	0 770 26 is_stmt 0              ; ggml/src/ggml-cpu/ggml-cpu.c:770:26
	ldur	s0, [x29, #-12]
	.loc	0 770 5                         ; ggml/src/ggml-cpu/ggml-cpu.c:770:5
	bl	_ggml_set_f32
	.loc	0 772 12 is_stmt 1              ; ggml/src/ggml-cpu/ggml-cpu.c:772:12
	ldr	x0, [sp, #8]
	.loc	0 772 5 epilogue_begin is_stmt 0 ; ggml/src/ggml-cpu/ggml-cpu.c:772:5
	ldp	x29, x30, [sp, #32]             ; 16-byte Folded Reload
	add	sp, sp, #48
	ret
Ltmp71:
Lfunc_end7:
	.cfi_endproc
                                        ; -- End function
	.globl	_ggml_set_f32                   ; -- Begin function ggml_set_f32
	.p2align	2
_ggml_set_f32:                          ; @ggml_set_f32
Lfunc_begin8:
	.loc	0 834 0 is_stmt 1               ; ggml/src/ggml-cpu/ggml-cpu.c:834:0
	.cfi_startproc
; %bb.0:
	sub	sp, sp, #128
	stp	x29, x30, [sp, #112]            ; 16-byte Folded Spill
	add	x29, sp, #112
	.cfi_def_cfa w29, 16
	.cfi_offset w30, -8
	.cfi_offset w29, -16
	stur	x0, [x29, #-8]
	stur	s0, [x29, #-12]
Ltmp72:
	.loc	0 835 34 prologue_end           ; ggml/src/ggml-cpu/ggml-cpu.c:835:34
	ldur	x0, [x29, #-8]
	.loc	0 835 23 is_stmt 0              ; ggml/src/ggml-cpu/ggml-cpu.c:835:23
	bl	_ggml_nrows
	.loc	0 835 15                        ; ggml/src/ggml-cpu/ggml-cpu.c:835:15
	mov	x8, x0
	stur	w8, [x29, #-16]
	.loc	0 836 23 is_stmt 1              ; ggml/src/ggml-cpu/ggml-cpu.c:836:23
	ldur	x8, [x29, #-8]
	ldr	x8, [x8, #16]
                                        ; kill: def $w8 killed $w8 killed $x8
	.loc	0 836 15 is_stmt 0              ; ggml/src/ggml-cpu/ggml-cpu.c:836:15
	stur	w8, [x29, #-20]
	.loc	0 837 23 is_stmt 1              ; ggml/src/ggml-cpu/ggml-cpu.c:837:23
	ldur	x8, [x29, #-8]
	ldr	x8, [x8, #56]
	.loc	0 837 18 is_stmt 0              ; ggml/src/ggml-cpu/ggml-cpu.c:837:18
	stur	x8, [x29, #-32]
	.loc	0 839 25 is_stmt 1              ; ggml/src/ggml-cpu/ggml-cpu.c:839:25
	ldur	x8, [x29, #-8]
	.loc	0 839 33 is_stmt 0              ; ggml/src/ggml-cpu/ggml-cpu.c:839:33
	ldr	x8, [x8, #248]
	.loc	0 839 18                        ; ggml/src/ggml-cpu/ggml-cpu.c:839:18
	stur	x8, [x29, #-40]
	.loc	0 841 13 is_stmt 1              ; ggml/src/ggml-cpu/ggml-cpu.c:841:13
	ldur	x8, [x29, #-8]
	.loc	0 841 21 is_stmt 0              ; ggml/src/ggml-cpu/ggml-cpu.c:841:21
	ldr	w8, [x8]
	str	w8, [sp, #40]                   ; 4-byte Folded Spill
	.loc	0 841 5                         ; ggml/src/ggml-cpu/ggml-cpu.c:841:5
	cbz	w8, LBB8_31
	b	LBB8_1
LBB8_1:
	.loc	0 0 5                           ; ggml/src/ggml-cpu/ggml-cpu.c:0:5
	ldr	w8, [sp, #40]                   ; 4-byte Folded Reload
	.loc	0 841 5                         ; ggml/src/ggml-cpu/ggml-cpu.c:841:5
	subs	w8, w8, #1
	b.eq	LBB8_21
	b	LBB8_2
LBB8_2:
	.loc	0 0 5                           ; ggml/src/ggml-cpu/ggml-cpu.c:0:5
	ldr	w8, [sp, #40]                   ; 4-byte Folded Reload
	.loc	0 841 5                         ; ggml/src/ggml-cpu/ggml-cpu.c:841:5
	subs	w8, w8, #24
	b.eq	LBB8_6
	b	LBB8_3
LBB8_3:
	.loc	0 0 5                           ; ggml/src/ggml-cpu/ggml-cpu.c:0:5
	ldr	w8, [sp, #40]                   ; 4-byte Folded Reload
	.loc	0 841 5                         ; ggml/src/ggml-cpu/ggml-cpu.c:841:5
	subs	w8, w8, #25
	b.eq	LBB8_11
	b	LBB8_4
LBB8_4:
	.loc	0 0 5                           ; ggml/src/ggml-cpu/ggml-cpu.c:0:5
	ldr	w8, [sp, #40]                   ; 4-byte Folded Reload
	.loc	0 841 5                         ; ggml/src/ggml-cpu/ggml-cpu.c:841:5
	subs	w8, w8, #26
	b.eq	LBB8_16
	b	LBB8_5
LBB8_5:
	.loc	0 0 5                           ; ggml/src/ggml-cpu/ggml-cpu.c:0:5
	ldr	w8, [sp, #40]                   ; 4-byte Folded Reload
	.loc	0 841 5                         ; ggml/src/ggml-cpu/ggml-cpu.c:841:5
	subs	w8, w8, #30
	b.eq	LBB8_26
	b	LBB8_36
LBB8_6:
Ltmp73:
	.loc	0 845 26 is_stmt 1              ; ggml/src/ggml-cpu/ggml-cpu.c:845:26
	stur	wzr, [x29, #-44]
	.loc	0 845 22 is_stmt 0              ; ggml/src/ggml-cpu/ggml-cpu.c:845:22
	b	LBB8_7
LBB8_7:                                 ; =>This Inner Loop Header: Depth=1
Ltmp74:
	.loc	0 845 33                        ; ggml/src/ggml-cpu/ggml-cpu.c:845:33
	ldur	w8, [x29, #-44]
	.loc	0 845 37                        ; ggml/src/ggml-cpu/ggml-cpu.c:845:37
	ldur	w9, [x29, #-16]
Ltmp75:
	.loc	0 845 17                        ; ggml/src/ggml-cpu/ggml-cpu.c:845:17
	subs	w8, w8, w9
	b.ge	LBB8_10
	b	LBB8_8
LBB8_8:                                 ;   in Loop: Header=BB8_7 Depth=1
Ltmp76:
	.loc	0 846 37 is_stmt 1              ; ggml/src/ggml-cpu/ggml-cpu.c:846:37
	ldur	w0, [x29, #-20]
	.loc	0 846 52 is_stmt 0              ; ggml/src/ggml-cpu/ggml-cpu.c:846:52
	ldur	x8, [x29, #-40]
	.loc	0 846 59                        ; ggml/src/ggml-cpu/ggml-cpu.c:846:59
	ldursw	x9, [x29, #-44]
	.loc	0 846 61                        ; ggml/src/ggml-cpu/ggml-cpu.c:846:61
	ldur	x10, [x29, #-32]
	.loc	0 846 60                        ; ggml/src/ggml-cpu/ggml-cpu.c:846:60
	mul	x9, x9, x10
	.loc	0 846 57                        ; ggml/src/ggml-cpu/ggml-cpu.c:846:57
	add	x1, x8, x9
	.loc	0 846 66                        ; ggml/src/ggml-cpu/ggml-cpu.c:846:66
	ldur	s0, [x29, #-12]
	fcvtzs	w8, s0
	.loc	0 846 21                        ; ggml/src/ggml-cpu/ggml-cpu.c:846:21
	sxtb	w2, w8
	bl	_ggml_vec_set_i8
	.loc	0 847 17 is_stmt 1              ; ggml/src/ggml-cpu/ggml-cpu.c:847:17
	b	LBB8_9
Ltmp77:
LBB8_9:                                 ;   in Loop: Header=BB8_7 Depth=1
	.loc	0 845 41                        ; ggml/src/ggml-cpu/ggml-cpu.c:845:41
	ldur	w8, [x29, #-44]
	add	w8, w8, #1
	stur	w8, [x29, #-44]
	.loc	0 845 17 is_stmt 0              ; ggml/src/ggml-cpu/ggml-cpu.c:845:17
	b	LBB8_7
Ltmp78:
LBB8_10:
	.loc	0 848 15 is_stmt 1              ; ggml/src/ggml-cpu/ggml-cpu.c:848:15
	b	LBB8_37
LBB8_11:
Ltmp79:
	.loc	0 852 26                        ; ggml/src/ggml-cpu/ggml-cpu.c:852:26
	stur	wzr, [x29, #-48]
	.loc	0 852 22 is_stmt 0              ; ggml/src/ggml-cpu/ggml-cpu.c:852:22
	b	LBB8_12
LBB8_12:                                ; =>This Inner Loop Header: Depth=1
Ltmp80:
	.loc	0 852 33                        ; ggml/src/ggml-cpu/ggml-cpu.c:852:33
	ldur	w8, [x29, #-48]
	.loc	0 852 37                        ; ggml/src/ggml-cpu/ggml-cpu.c:852:37
	ldur	w9, [x29, #-16]
Ltmp81:
	.loc	0 852 17                        ; ggml/src/ggml-cpu/ggml-cpu.c:852:17
	subs	w8, w8, w9
	b.ge	LBB8_15
	b	LBB8_13
LBB8_13:                                ;   in Loop: Header=BB8_12 Depth=1
Ltmp82:
	.loc	0 853 38 is_stmt 1              ; ggml/src/ggml-cpu/ggml-cpu.c:853:38
	ldur	w0, [x29, #-20]
	.loc	0 853 54 is_stmt 0              ; ggml/src/ggml-cpu/ggml-cpu.c:853:54
	ldur	x8, [x29, #-40]
	.loc	0 853 61                        ; ggml/src/ggml-cpu/ggml-cpu.c:853:61
	ldursw	x9, [x29, #-48]
	.loc	0 853 63                        ; ggml/src/ggml-cpu/ggml-cpu.c:853:63
	ldur	x10, [x29, #-32]
	.loc	0 853 62                        ; ggml/src/ggml-cpu/ggml-cpu.c:853:62
	mul	x9, x9, x10
	.loc	0 853 59                        ; ggml/src/ggml-cpu/ggml-cpu.c:853:59
	add	x1, x8, x9
	.loc	0 853 68                        ; ggml/src/ggml-cpu/ggml-cpu.c:853:68
	ldur	s0, [x29, #-12]
	fcvtzs	w8, s0
	.loc	0 853 21                        ; ggml/src/ggml-cpu/ggml-cpu.c:853:21
	sxth	w2, w8
	bl	_ggml_vec_set_i16
	.loc	0 854 17 is_stmt 1              ; ggml/src/ggml-cpu/ggml-cpu.c:854:17
	b	LBB8_14
Ltmp83:
LBB8_14:                                ;   in Loop: Header=BB8_12 Depth=1
	.loc	0 852 41                        ; ggml/src/ggml-cpu/ggml-cpu.c:852:41
	ldur	w8, [x29, #-48]
	add	w8, w8, #1
	stur	w8, [x29, #-48]
	.loc	0 852 17 is_stmt 0              ; ggml/src/ggml-cpu/ggml-cpu.c:852:17
	b	LBB8_12
Ltmp84:
LBB8_15:
	.loc	0 855 15 is_stmt 1              ; ggml/src/ggml-cpu/ggml-cpu.c:855:15
	b	LBB8_37
LBB8_16:
Ltmp85:
	.loc	0 859 26                        ; ggml/src/ggml-cpu/ggml-cpu.c:859:26
	stur	wzr, [x29, #-52]
	.loc	0 859 22 is_stmt 0              ; ggml/src/ggml-cpu/ggml-cpu.c:859:22
	b	LBB8_17
LBB8_17:                                ; =>This Inner Loop Header: Depth=1
Ltmp86:
	.loc	0 859 33                        ; ggml/src/ggml-cpu/ggml-cpu.c:859:33
	ldur	w8, [x29, #-52]
	.loc	0 859 37                        ; ggml/src/ggml-cpu/ggml-cpu.c:859:37
	ldur	w9, [x29, #-16]
Ltmp87:
	.loc	0 859 17                        ; ggml/src/ggml-cpu/ggml-cpu.c:859:17
	subs	w8, w8, w9
	b.ge	LBB8_20
	b	LBB8_18
LBB8_18:                                ;   in Loop: Header=BB8_17 Depth=1
Ltmp88:
	.loc	0 860 38 is_stmt 1              ; ggml/src/ggml-cpu/ggml-cpu.c:860:38
	ldur	w0, [x29, #-20]
	.loc	0 860 54 is_stmt 0              ; ggml/src/ggml-cpu/ggml-cpu.c:860:54
	ldur	x8, [x29, #-40]
	.loc	0 860 61                        ; ggml/src/ggml-cpu/ggml-cpu.c:860:61
	ldursw	x9, [x29, #-52]
	.loc	0 860 63                        ; ggml/src/ggml-cpu/ggml-cpu.c:860:63
	ldur	x10, [x29, #-32]
	.loc	0 860 62                        ; ggml/src/ggml-cpu/ggml-cpu.c:860:62
	mul	x9, x9, x10
	.loc	0 860 59                        ; ggml/src/ggml-cpu/ggml-cpu.c:860:59
	add	x1, x8, x9
	.loc	0 860 68                        ; ggml/src/ggml-cpu/ggml-cpu.c:860:68
	ldur	s0, [x29, #-12]
	fcvtzs	w2, s0
	.loc	0 860 21                        ; ggml/src/ggml-cpu/ggml-cpu.c:860:21
	bl	_ggml_vec_set_i32
	.loc	0 861 17 is_stmt 1              ; ggml/src/ggml-cpu/ggml-cpu.c:861:17
	b	LBB8_19
Ltmp89:
LBB8_19:                                ;   in Loop: Header=BB8_17 Depth=1
	.loc	0 859 41                        ; ggml/src/ggml-cpu/ggml-cpu.c:859:41
	ldur	w8, [x29, #-52]
	add	w8, w8, #1
	stur	w8, [x29, #-52]
	.loc	0 859 17 is_stmt 0              ; ggml/src/ggml-cpu/ggml-cpu.c:859:17
	b	LBB8_17
Ltmp90:
LBB8_20:
	.loc	0 862 15 is_stmt 1              ; ggml/src/ggml-cpu/ggml-cpu.c:862:15
	b	LBB8_37
LBB8_21:
Ltmp91:
	.loc	0 866 26                        ; ggml/src/ggml-cpu/ggml-cpu.c:866:26
	str	wzr, [sp, #56]
	.loc	0 866 22 is_stmt 0              ; ggml/src/ggml-cpu/ggml-cpu.c:866:22
	b	LBB8_22
LBB8_22:                                ; =>This Inner Loop Header: Depth=1
Ltmp92:
	.loc	0 866 33                        ; ggml/src/ggml-cpu/ggml-cpu.c:866:33
	ldr	w8, [sp, #56]
	.loc	0 866 37                        ; ggml/src/ggml-cpu/ggml-cpu.c:866:37
	ldur	w9, [x29, #-16]
Ltmp93:
	.loc	0 866 17                        ; ggml/src/ggml-cpu/ggml-cpu.c:866:17
	subs	w8, w8, w9
	b.ge	LBB8_25
	b	LBB8_23
LBB8_23:                                ;   in Loop: Header=BB8_22 Depth=1
Ltmp94:
	.loc	0 867 38 is_stmt 1              ; ggml/src/ggml-cpu/ggml-cpu.c:867:38
	ldur	w8, [x29, #-20]
	str	w8, [sp, #36]                   ; 4-byte Folded Spill
	.loc	0 867 58 is_stmt 0              ; ggml/src/ggml-cpu/ggml-cpu.c:867:58
	ldur	x8, [x29, #-40]
	.loc	0 867 65                        ; ggml/src/ggml-cpu/ggml-cpu.c:867:65
	ldrsw	x9, [sp, #56]
	.loc	0 867 67                        ; ggml/src/ggml-cpu/ggml-cpu.c:867:67
	ldur	x10, [x29, #-32]
	.loc	0 867 66                        ; ggml/src/ggml-cpu/ggml-cpu.c:867:66
	mul	x9, x9, x10
	.loc	0 867 63                        ; ggml/src/ggml-cpu/ggml-cpu.c:867:63
	add	x8, x8, x9
	str	x8, [sp, #24]                   ; 8-byte Folded Spill
	.loc	0 867 72                        ; ggml/src/ggml-cpu/ggml-cpu.c:867:72
	ldur	s0, [x29, #-12]
	bl	_ggml_compute_fp32_to_fp16
	ldr	x1, [sp, #24]                   ; 8-byte Folded Reload
	mov	x2, x0
	ldr	w0, [sp, #36]                   ; 4-byte Folded Reload
	.loc	0 867 21                        ; ggml/src/ggml-cpu/ggml-cpu.c:867:21
	bl	_ggml_vec_set_f16
	.loc	0 868 17 is_stmt 1              ; ggml/src/ggml-cpu/ggml-cpu.c:868:17
	b	LBB8_24
Ltmp95:
LBB8_24:                                ;   in Loop: Header=BB8_22 Depth=1
	.loc	0 866 41                        ; ggml/src/ggml-cpu/ggml-cpu.c:866:41
	ldr	w8, [sp, #56]
	add	w8, w8, #1
	str	w8, [sp, #56]
	.loc	0 866 17 is_stmt 0              ; ggml/src/ggml-cpu/ggml-cpu.c:866:17
	b	LBB8_22
Ltmp96:
LBB8_25:
	.loc	0 869 15 is_stmt 1              ; ggml/src/ggml-cpu/ggml-cpu.c:869:15
	b	LBB8_37
LBB8_26:
Ltmp97:
	.loc	0 873 26                        ; ggml/src/ggml-cpu/ggml-cpu.c:873:26
	str	wzr, [sp, #52]
	.loc	0 873 22 is_stmt 0              ; ggml/src/ggml-cpu/ggml-cpu.c:873:22
	b	LBB8_27
LBB8_27:                                ; =>This Inner Loop Header: Depth=1
Ltmp98:
	.loc	0 873 33                        ; ggml/src/ggml-cpu/ggml-cpu.c:873:33
	ldr	w8, [sp, #52]
	.loc	0 873 37                        ; ggml/src/ggml-cpu/ggml-cpu.c:873:37
	ldur	w9, [x29, #-16]
Ltmp99:
	.loc	0 873 17                        ; ggml/src/ggml-cpu/ggml-cpu.c:873:17
	subs	w8, w8, w9
	b.ge	LBB8_30
	b	LBB8_28
LBB8_28:                                ;   in Loop: Header=BB8_27 Depth=1
Ltmp100:
	.loc	0 874 39 is_stmt 1              ; ggml/src/ggml-cpu/ggml-cpu.c:874:39
	ldur	w8, [x29, #-20]
	str	w8, [sp, #20]                   ; 4-byte Folded Spill
	.loc	0 874 59 is_stmt 0              ; ggml/src/ggml-cpu/ggml-cpu.c:874:59
	ldur	x8, [x29, #-40]
	.loc	0 874 66                        ; ggml/src/ggml-cpu/ggml-cpu.c:874:66
	ldrsw	x9, [sp, #52]
	.loc	0 874 68                        ; ggml/src/ggml-cpu/ggml-cpu.c:874:68
	ldur	x10, [x29, #-32]
	.loc	0 874 67                        ; ggml/src/ggml-cpu/ggml-cpu.c:874:67
	mul	x9, x9, x10
	.loc	0 874 64                        ; ggml/src/ggml-cpu/ggml-cpu.c:874:64
	add	x8, x8, x9
	str	x8, [sp, #8]                    ; 8-byte Folded Spill
	.loc	0 874 73                        ; ggml/src/ggml-cpu/ggml-cpu.c:874:73
	ldur	s0, [x29, #-12]
	bl	_ggml_compute_fp32_to_bf16
	ldr	x1, [sp, #8]                    ; 8-byte Folded Reload
	mov	x8, x0
	ldr	w0, [sp, #20]                   ; 4-byte Folded Reload
	strh	w8, [sp, #50]
	.loc	0 874 21                        ; ggml/src/ggml-cpu/ggml-cpu.c:874:21
	ldrh	w8, [sp, #50]
	mov	x2, x8
	bl	_ggml_vec_set_bf16
	.loc	0 875 17 is_stmt 1              ; ggml/src/ggml-cpu/ggml-cpu.c:875:17
	b	LBB8_29
Ltmp101:
LBB8_29:                                ;   in Loop: Header=BB8_27 Depth=1
	.loc	0 873 41                        ; ggml/src/ggml-cpu/ggml-cpu.c:873:41
	ldr	w8, [sp, #52]
	add	w8, w8, #1
	str	w8, [sp, #52]
	.loc	0 873 17 is_stmt 0              ; ggml/src/ggml-cpu/ggml-cpu.c:873:17
	b	LBB8_27
Ltmp102:
LBB8_30:
	.loc	0 876 15 is_stmt 1              ; ggml/src/ggml-cpu/ggml-cpu.c:876:15
	b	LBB8_37
LBB8_31:
Ltmp103:
	.loc	0 880 26                        ; ggml/src/ggml-cpu/ggml-cpu.c:880:26
	str	wzr, [sp, #44]
	.loc	0 880 22 is_stmt 0              ; ggml/src/ggml-cpu/ggml-cpu.c:880:22
	b	LBB8_32
LBB8_32:                                ; =>This Inner Loop Header: Depth=1
Ltmp104:
	.loc	0 880 33                        ; ggml/src/ggml-cpu/ggml-cpu.c:880:33
	ldr	w8, [sp, #44]
	.loc	0 880 37                        ; ggml/src/ggml-cpu/ggml-cpu.c:880:37
	ldur	w9, [x29, #-16]
Ltmp105:
	.loc	0 880 17                        ; ggml/src/ggml-cpu/ggml-cpu.c:880:17
	subs	w8, w8, w9
	b.ge	LBB8_35
	b	LBB8_33
LBB8_33:                                ;   in Loop: Header=BB8_32 Depth=1
Ltmp106:
	.loc	0 881 38 is_stmt 1              ; ggml/src/ggml-cpu/ggml-cpu.c:881:38
	ldur	w0, [x29, #-20]
	.loc	0 881 52 is_stmt 0              ; ggml/src/ggml-cpu/ggml-cpu.c:881:52
	ldur	x8, [x29, #-40]
	.loc	0 881 59                        ; ggml/src/ggml-cpu/ggml-cpu.c:881:59
	ldrsw	x9, [sp, #44]
	.loc	0 881 61                        ; ggml/src/ggml-cpu/ggml-cpu.c:881:61
	ldur	x10, [x29, #-32]
	.loc	0 881 60                        ; ggml/src/ggml-cpu/ggml-cpu.c:881:60
	mul	x9, x9, x10
	.loc	0 881 57                        ; ggml/src/ggml-cpu/ggml-cpu.c:881:57
	add	x1, x8, x9
	.loc	0 881 66                        ; ggml/src/ggml-cpu/ggml-cpu.c:881:66
	ldur	s0, [x29, #-12]
	.loc	0 881 21                        ; ggml/src/ggml-cpu/ggml-cpu.c:881:21
	bl	_ggml_vec_set_f32
	.loc	0 882 17 is_stmt 1              ; ggml/src/ggml-cpu/ggml-cpu.c:882:17
	b	LBB8_34
Ltmp107:
LBB8_34:                                ;   in Loop: Header=BB8_32 Depth=1
	.loc	0 880 41                        ; ggml/src/ggml-cpu/ggml-cpu.c:880:41
	ldr	w8, [sp, #44]
	add	w8, w8, #1
	str	w8, [sp, #44]
	.loc	0 880 17 is_stmt 0              ; ggml/src/ggml-cpu/ggml-cpu.c:880:17
	b	LBB8_32
Ltmp108:
LBB8_35:
	.loc	0 883 15 is_stmt 1              ; ggml/src/ggml-cpu/ggml-cpu.c:883:15
	b	LBB8_37
LBB8_36:
Ltmp109:
	.loc	0 886 17                        ; ggml/src/ggml-cpu/ggml-cpu.c:886:17
	adrp	x0, l_.str.1@PAGE
	add	x0, x0, l_.str.1@PAGEOFF
	mov	w1, #886                        ; =0x376
	adrp	x2, l_.str.4@PAGE
	add	x2, x2, l_.str.4@PAGEOFF
	bl	_ggml_abort
Ltmp110:
LBB8_37:
	.loc	0 890 12                        ; ggml/src/ggml-cpu/ggml-cpu.c:890:12
	ldur	x0, [x29, #-8]
	.loc	0 890 5 epilogue_begin is_stmt 0 ; ggml/src/ggml-cpu/ggml-cpu.c:890:5
	ldp	x29, x30, [sp, #112]            ; 16-byte Folded Reload
	add	sp, sp, #128
	ret
Ltmp111:
Lfunc_end8:
	.cfi_endproc
                                        ; -- End function
	.p2align	2                               ; -- Begin function ggml_vec_set_i8
_ggml_vec_set_i8:                       ; @ggml_vec_set_i8
Lfunc_begin9:
	.loc	7 49 0 is_stmt 1                ; ggml/src/ggml-cpu/vec.h:49:0
	.cfi_startproc
; %bb.0:
	sub	sp, sp, #32
	.cfi_def_cfa_offset 32
	str	w0, [sp, #28]
	str	x1, [sp, #16]
	strb	w2, [sp, #15]
Ltmp113:
	.loc	7 49 88 prologue_end            ; ggml/src/ggml-cpu/vec.h:49:88
	str	wzr, [sp, #8]
	.loc	7 49 84 is_stmt 0               ; ggml/src/ggml-cpu/vec.h:49:84
	b	LBB9_1
LBB9_1:                                 ; =>This Inner Loop Header: Depth=1
Ltmp114:
	.loc	7 49 95                         ; ggml/src/ggml-cpu/vec.h:49:95
	ldr	w8, [sp, #8]
	.loc	7 49 99                         ; ggml/src/ggml-cpu/vec.h:49:99
	ldr	w9, [sp, #28]
Ltmp115:
	.loc	7 49 79                         ; ggml/src/ggml-cpu/vec.h:49:79
	subs	w8, w8, w9
	b.ge	LBB9_4
	b	LBB9_2
LBB9_2:                                 ;   in Loop: Header=BB9_1 Depth=1
Ltmp116:
	.loc	7 49 114                        ; ggml/src/ggml-cpu/vec.h:49:114
	ldrb	w8, [sp, #15]
	.loc	7 49 107                        ; ggml/src/ggml-cpu/vec.h:49:107
	ldr	x9, [sp, #16]
	.loc	7 49 109                        ; ggml/src/ggml-cpu/vec.h:49:109
	ldrsw	x10, [sp, #8]
	.loc	7 49 107                        ; ggml/src/ggml-cpu/vec.h:49:107
	add	x9, x9, x10
	.loc	7 49 112                        ; ggml/src/ggml-cpu/vec.h:49:112
	strb	w8, [x9]
	.loc	7 49 107                        ; ggml/src/ggml-cpu/vec.h:49:107
	b	LBB9_3
LBB9_3:                                 ;   in Loop: Header=BB9_1 Depth=1
	.loc	7 49 102                        ; ggml/src/ggml-cpu/vec.h:49:102
	ldr	w8, [sp, #8]
	add	w8, w8, #1
	str	w8, [sp, #8]
	.loc	7 49 79                         ; ggml/src/ggml-cpu/vec.h:49:79
	b	LBB9_1
Ltmp117:
LBB9_4:
	.loc	7 49 117 epilogue_begin         ; ggml/src/ggml-cpu/vec.h:49:117
	add	sp, sp, #32
	ret
Ltmp118:
Lfunc_end9:
	.cfi_endproc
                                        ; -- End function
	.p2align	2                               ; -- Begin function ggml_vec_set_i16
_ggml_vec_set_i16:                      ; @ggml_vec_set_i16
Lfunc_begin10:
	.loc	7 50 0 is_stmt 1                ; ggml/src/ggml-cpu/vec.h:50:0
	.cfi_startproc
; %bb.0:
	sub	sp, sp, #32
	.cfi_def_cfa_offset 32
	str	w0, [sp, #28]
	str	x1, [sp, #16]
	strh	w2, [sp, #14]
Ltmp120:
	.loc	7 50 91 prologue_end            ; ggml/src/ggml-cpu/vec.h:50:91
	str	wzr, [sp, #8]
	.loc	7 50 87 is_stmt 0               ; ggml/src/ggml-cpu/vec.h:50:87
	b	LBB10_1
LBB10_1:                                ; =>This Inner Loop Header: Depth=1
Ltmp121:
	.loc	7 50 98                         ; ggml/src/ggml-cpu/vec.h:50:98
	ldr	w8, [sp, #8]
	.loc	7 50 102                        ; ggml/src/ggml-cpu/vec.h:50:102
	ldr	w9, [sp, #28]
Ltmp122:
	.loc	7 50 82                         ; ggml/src/ggml-cpu/vec.h:50:82
	subs	w8, w8, w9
	b.ge	LBB10_4
	b	LBB10_2
LBB10_2:                                ;   in Loop: Header=BB10_1 Depth=1
Ltmp123:
	.loc	7 50 117                        ; ggml/src/ggml-cpu/vec.h:50:117
	ldrh	w8, [sp, #14]
	.loc	7 50 110                        ; ggml/src/ggml-cpu/vec.h:50:110
	ldr	x9, [sp, #16]
	.loc	7 50 112                        ; ggml/src/ggml-cpu/vec.h:50:112
	ldrsw	x10, [sp, #8]
	.loc	7 50 110                        ; ggml/src/ggml-cpu/vec.h:50:110
	add	x9, x9, x10, lsl #1
	.loc	7 50 115                        ; ggml/src/ggml-cpu/vec.h:50:115
	strh	w8, [x9]
	.loc	7 50 110                        ; ggml/src/ggml-cpu/vec.h:50:110
	b	LBB10_3
LBB10_3:                                ;   in Loop: Header=BB10_1 Depth=1
	.loc	7 50 105                        ; ggml/src/ggml-cpu/vec.h:50:105
	ldr	w8, [sp, #8]
	add	w8, w8, #1
	str	w8, [sp, #8]
	.loc	7 50 82                         ; ggml/src/ggml-cpu/vec.h:50:82
	b	LBB10_1
Ltmp124:
LBB10_4:
	.loc	7 50 120 epilogue_begin         ; ggml/src/ggml-cpu/vec.h:50:120
	add	sp, sp, #32
	ret
Ltmp125:
Lfunc_end10:
	.cfi_endproc
                                        ; -- End function
	.p2align	2                               ; -- Begin function ggml_vec_set_i32
_ggml_vec_set_i32:                      ; @ggml_vec_set_i32
Lfunc_begin11:
	.loc	7 52 0 is_stmt 1                ; ggml/src/ggml-cpu/vec.h:52:0
	.cfi_startproc
; %bb.0:
	sub	sp, sp, #32
	.cfi_def_cfa_offset 32
	str	w0, [sp, #28]
	str	x1, [sp, #16]
	str	w2, [sp, #12]
Ltmp127:
	.loc	7 52 93 prologue_end            ; ggml/src/ggml-cpu/vec.h:52:93
	str	wzr, [sp, #8]
	.loc	7 52 89 is_stmt 0               ; ggml/src/ggml-cpu/vec.h:52:89
	b	LBB11_1
LBB11_1:                                ; =>This Inner Loop Header: Depth=1
Ltmp128:
	.loc	7 52 100                        ; ggml/src/ggml-cpu/vec.h:52:100
	ldr	w8, [sp, #8]
	.loc	7 52 104                        ; ggml/src/ggml-cpu/vec.h:52:104
	ldr	w9, [sp, #28]
Ltmp129:
	.loc	7 52 84                         ; ggml/src/ggml-cpu/vec.h:52:84
	subs	w8, w8, w9
	b.ge	LBB11_4
	b	LBB11_2
LBB11_2:                                ;   in Loop: Header=BB11_1 Depth=1
Ltmp130:
	.loc	7 52 119                        ; ggml/src/ggml-cpu/vec.h:52:119
	ldr	w8, [sp, #12]
	.loc	7 52 112                        ; ggml/src/ggml-cpu/vec.h:52:112
	ldr	x9, [sp, #16]
	.loc	7 52 114                        ; ggml/src/ggml-cpu/vec.h:52:114
	ldrsw	x10, [sp, #8]
	.loc	7 52 117                        ; ggml/src/ggml-cpu/vec.h:52:117
	str	w8, [x9, x10, lsl #2]
	.loc	7 52 112                        ; ggml/src/ggml-cpu/vec.h:52:112
	b	LBB11_3
LBB11_3:                                ;   in Loop: Header=BB11_1 Depth=1
	.loc	7 52 107                        ; ggml/src/ggml-cpu/vec.h:52:107
	ldr	w8, [sp, #8]
	add	w8, w8, #1
	str	w8, [sp, #8]
	.loc	7 52 84                         ; ggml/src/ggml-cpu/vec.h:52:84
	b	LBB11_1
Ltmp131:
LBB11_4:
	.loc	7 52 125 epilogue_begin         ; ggml/src/ggml-cpu/vec.h:52:125
	add	sp, sp, #32
	ret
Ltmp132:
Lfunc_end11:
	.cfi_endproc
                                        ; -- End function
	.p2align	2                               ; -- Begin function ggml_vec_set_f16
_ggml_vec_set_f16:                      ; @ggml_vec_set_f16
Lfunc_begin12:
	.loc	7 55 0 is_stmt 1                ; ggml/src/ggml-cpu/vec.h:55:0
	.cfi_startproc
; %bb.0:
	sub	sp, sp, #32
	.cfi_def_cfa_offset 32
	str	w0, [sp, #28]
	str	x1, [sp, #16]
	strh	w2, [sp, #14]
Ltmp134:
	.loc	7 55 99 prologue_end            ; ggml/src/ggml-cpu/vec.h:55:99
	str	wzr, [sp, #8]
	.loc	7 55 95 is_stmt 0               ; ggml/src/ggml-cpu/vec.h:55:95
	b	LBB12_1
LBB12_1:                                ; =>This Inner Loop Header: Depth=1
Ltmp135:
	.loc	7 55 106                        ; ggml/src/ggml-cpu/vec.h:55:106
	ldr	w8, [sp, #8]
	.loc	7 55 110                        ; ggml/src/ggml-cpu/vec.h:55:110
	ldr	w9, [sp, #28]
Ltmp136:
	.loc	7 55 90                         ; ggml/src/ggml-cpu/vec.h:55:90
	subs	w8, w8, w9
	b.ge	LBB12_4
	b	LBB12_2
LBB12_2:                                ;   in Loop: Header=BB12_1 Depth=1
Ltmp137:
	.loc	7 55 125                        ; ggml/src/ggml-cpu/vec.h:55:125
	ldrh	w8, [sp, #14]
	.loc	7 55 118                        ; ggml/src/ggml-cpu/vec.h:55:118
	ldr	x9, [sp, #16]
	.loc	7 55 120                        ; ggml/src/ggml-cpu/vec.h:55:120
	ldrsw	x10, [sp, #8]
	.loc	7 55 118                        ; ggml/src/ggml-cpu/vec.h:55:118
	add	x9, x9, x10, lsl #1
	.loc	7 55 123                        ; ggml/src/ggml-cpu/vec.h:55:123
	strh	w8, [x9]
	.loc	7 55 118                        ; ggml/src/ggml-cpu/vec.h:55:118
	b	LBB12_3
LBB12_3:                                ;   in Loop: Header=BB12_1 Depth=1
	.loc	7 55 113                        ; ggml/src/ggml-cpu/vec.h:55:113
	ldr	w8, [sp, #8]
	add	w8, w8, #1
	str	w8, [sp, #8]
	.loc	7 55 90                         ; ggml/src/ggml-cpu/vec.h:55:90
	b	LBB12_1
Ltmp138:
LBB12_4:
	.loc	7 55 128 epilogue_begin         ; ggml/src/ggml-cpu/vec.h:55:128
	add	sp, sp, #32
	ret
Ltmp139:
Lfunc_end12:
	.cfi_endproc
                                        ; -- End function
	.p2align	2                               ; -- Begin function ggml_compute_fp32_to_fp16
_ggml_compute_fp32_to_fp16:             ; @ggml_compute_fp32_to_fp16
Lfunc_begin13:
	.loc	6 339 0 is_stmt 1               ; ggml/src/ggml-impl.h:339:0
	.cfi_startproc
; %bb.0:
	sub	sp, sp, #16
	.cfi_def_cfa_offset 16
	str	s0, [sp, #12]
Ltmp141:
	.loc	6 341 22 prologue_end           ; ggml/src/ggml-impl.h:341:22
	ldr	s0, [sp, #12]
	fcvt	h0, s0
	.loc	6 341 16 is_stmt 0              ; ggml/src/ggml-impl.h:341:16
	str	h0, [sp, #8]
	.loc	6 342 9 is_stmt 1               ; ggml/src/ggml-impl.h:342:9
	ldr	h0, [sp, #8]
	str	h0, [sp, #10]
	.loc	6 343 16                        ; ggml/src/ggml-impl.h:343:16
	ldrh	w0, [sp, #10]
	.loc	6 343 9 epilogue_begin is_stmt 0 ; ggml/src/ggml-impl.h:343:9
	add	sp, sp, #16
	ret
Ltmp142:
Lfunc_end13:
	.cfi_endproc
                                        ; -- End function
	.p2align	2                               ; -- Begin function ggml_vec_set_bf16
_ggml_vec_set_bf16:                     ; @ggml_vec_set_bf16
Lfunc_begin14:
	.loc	7 56 0 is_stmt 1                ; ggml/src/ggml-cpu/vec.h:56:0
	.cfi_startproc
; %bb.0:
	sub	sp, sp, #32
	.cfi_def_cfa_offset 32
	mov	x8, x2
	strh	w8, [sp, #30]
	str	w0, [sp, #24]
	str	x1, [sp, #16]
Ltmp144:
	.loc	7 56 100 prologue_end           ; ggml/src/ggml-cpu/vec.h:56:100
	str	wzr, [sp, #12]
	.loc	7 56 96 is_stmt 0               ; ggml/src/ggml-cpu/vec.h:56:96
	b	LBB14_1
LBB14_1:                                ; =>This Inner Loop Header: Depth=1
Ltmp145:
	.loc	7 56 107                        ; ggml/src/ggml-cpu/vec.h:56:107
	ldr	w8, [sp, #12]
	.loc	7 56 111                        ; ggml/src/ggml-cpu/vec.h:56:111
	ldr	w9, [sp, #24]
Ltmp146:
	.loc	7 56 91                         ; ggml/src/ggml-cpu/vec.h:56:91
	subs	w8, w8, w9
	b.ge	LBB14_4
	b	LBB14_2
LBB14_2:                                ;   in Loop: Header=BB14_1 Depth=1
Ltmp147:
	.loc	7 56 119                        ; ggml/src/ggml-cpu/vec.h:56:119
	ldr	x8, [sp, #16]
	.loc	7 56 121                        ; ggml/src/ggml-cpu/vec.h:56:121
	ldrsw	x9, [sp, #12]
	.loc	7 56 119                        ; ggml/src/ggml-cpu/vec.h:56:119
	add	x9, x8, x9, lsl #1
	.loc	7 56 126                        ; ggml/src/ggml-cpu/vec.h:56:126
	ldrh	w8, [sp, #30]
	strh	w8, [x9]
	.loc	7 56 119                        ; ggml/src/ggml-cpu/vec.h:56:119
	b	LBB14_3
LBB14_3:                                ;   in Loop: Header=BB14_1 Depth=1
	.loc	7 56 114                        ; ggml/src/ggml-cpu/vec.h:56:114
	ldr	w8, [sp, #12]
	add	w8, w8, #1
	str	w8, [sp, #12]
	.loc	7 56 91                         ; ggml/src/ggml-cpu/vec.h:56:91
	b	LBB14_1
Ltmp148:
LBB14_4:
	.loc	7 56 129 epilogue_begin         ; ggml/src/ggml-cpu/vec.h:56:129
	add	sp, sp, #32
	ret
Ltmp149:
Lfunc_end14:
	.cfi_endproc
                                        ; -- End function
	.p2align	2                               ; -- Begin function ggml_compute_fp32_to_bf16
_ggml_compute_fp32_to_bf16:             ; @ggml_compute_fp32_to_bf16
Lfunc_begin15:
	.loc	6 572 0 is_stmt 1               ; ggml/src/ggml-impl.h:572:0
	.cfi_startproc
; %bb.0:
	sub	sp, sp, #16
	.cfi_def_cfa_offset 16
	str	s0, [sp, #8]
Ltmp151:
	.loc	6 578 11 prologue_end           ; ggml/src/ggml-impl.h:578:11
	ldr	s0, [sp, #8]
	.loc	6 578 9 is_stmt 0               ; ggml/src/ggml-impl.h:578:9
	str	s0, [sp, #4]
Ltmp152:
	.loc	6 579 12 is_stmt 1              ; ggml/src/ggml-impl.h:579:12
	ldr	w8, [sp, #4]
	.loc	6 579 14 is_stmt 0              ; ggml/src/ggml-impl.h:579:14
	and	w8, w8, #0x7fffffff
	.loc	6 579 28                        ; ggml/src/ggml-impl.h:579:28
	mov	w9, #2139095040                 ; =0x7f800000
Ltmp153:
	.loc	6 579 9                         ; ggml/src/ggml-impl.h:579:9
	subs	w8, w8, w9
	b.ls	LBB15_2
	b	LBB15_1
LBB15_1:
Ltmp154:
	.loc	6 580 21 is_stmt 1              ; ggml/src/ggml-impl.h:580:21
	ldr	w8, [sp, #4]
	.loc	6 580 23 is_stmt 0              ; ggml/src/ggml-impl.h:580:23
	lsr	w8, w8, #16
	.loc	6 580 30                        ; ggml/src/ggml-impl.h:580:30
	orr	w8, w8, #0x40
	.loc	6 580 16                        ; ggml/src/ggml-impl.h:580:16
	strh	w8, [sp, #14]
	.loc	6 581 9 is_stmt 1               ; ggml/src/ggml-impl.h:581:9
	b	LBB15_3
Ltmp155:
LBB15_2:
	.loc	6 583 17                        ; ggml/src/ggml-impl.h:583:17
	ldr	w8, [sp, #4]
	.loc	6 583 35 is_stmt 0              ; ggml/src/ggml-impl.h:583:35
	ldr	w9, [sp, #4]
	.loc	6 583 37                        ; ggml/src/ggml-impl.h:583:37
	lsr	w9, w9, #16
	.loc	6 583 44                        ; ggml/src/ggml-impl.h:583:44
	and	w10, w9, #0x1
	.loc	6 583 29                        ; ggml/src/ggml-impl.h:583:29
	mov	w9, #32767                      ; =0x7fff
	add	w9, w9, w10
	.loc	6 583 19                        ; ggml/src/ggml-impl.h:583:19
	add	w8, w8, w9
	.loc	6 583 51                        ; ggml/src/ggml-impl.h:583:51
	lsr	w8, w8, #16
	.loc	6 583 12                        ; ggml/src/ggml-impl.h:583:12
	strh	w8, [sp, #14]
	.loc	6 584 5 is_stmt 1               ; ggml/src/ggml-impl.h:584:5
	b	LBB15_3
LBB15_3:
	.loc	6 585 1                         ; ggml/src/ggml-impl.h:585:1
	ldrh	w0, [sp, #14]
	.loc	6 585 1 epilogue_begin is_stmt 0 ; ggml/src/ggml-impl.h:585:1
	add	sp, sp, #16
	ret
Ltmp156:
Lfunc_end15:
	.cfi_endproc
                                        ; -- End function
	.globl	_ggml_get_i32_1d                ; -- Begin function ggml_get_i32_1d
	.p2align	2
_ggml_get_i32_1d:                       ; @ggml_get_i32_1d
Lfunc_begin16:
	.loc	0 893 0 is_stmt 1               ; ggml/src/ggml-cpu/ggml-cpu.c:893:0
	.cfi_startproc
; %bb.0:
	sub	sp, sp, #112
	stp	x29, x30, [sp, #96]             ; 16-byte Folded Spill
	add	x29, sp, #96
	.cfi_def_cfa w29, 16
	.cfi_offset w30, -8
	.cfi_offset w29, -16
	adrp	x8, ___stack_chk_guard@GOTPAGE
	ldr	x8, [x8, ___stack_chk_guard@GOTPAGEOFF]
	ldr	x8, [x8]
	stur	x8, [x29, #-8]
	str	x0, [sp, #32]
	str	w1, [sp, #28]
Ltmp157:
	.loc	0 894 29 prologue_end           ; ggml/src/ggml-cpu/ggml-cpu.c:894:29
	ldr	x0, [sp, #32]
	.loc	0 894 10 is_stmt 0              ; ggml/src/ggml-cpu/ggml-cpu.c:894:10
	bl	_ggml_is_contiguous
Ltmp158:
	.loc	0 894 9                         ; ggml/src/ggml-cpu/ggml-cpu.c:894:9
	tbnz	w0, #0, LBB16_2
	b	LBB16_1
LBB16_1:
Ltmp159:
	.loc	0 895 17 is_stmt 1              ; ggml/src/ggml-cpu/ggml-cpu.c:895:17
	movi.2d	v0, #0000000000000000
	add	x2, sp, #48
	str	q0, [sp, #48]
	str	q0, [sp, #64]
	.loc	0 896 28                        ; ggml/src/ggml-cpu/ggml-cpu.c:896:28
	ldr	x0, [sp, #32]
	.loc	0 896 36 is_stmt 0              ; ggml/src/ggml-cpu/ggml-cpu.c:896:36
	ldrsw	x1, [sp, #28]
	.loc	0 896 48                        ; ggml/src/ggml-cpu/ggml-cpu.c:896:48
	add	x3, x2, #8
	.loc	0 896 56                        ; ggml/src/ggml-cpu/ggml-cpu.c:896:56
	add	x4, x2, #16
	.loc	0 896 64                        ; ggml/src/ggml-cpu/ggml-cpu.c:896:64
	add	x5, x2, #24
	.loc	0 896 9                         ; ggml/src/ggml-cpu/ggml-cpu.c:896:9
	bl	_ggml_unravel_index
	.loc	0 897 32 is_stmt 1              ; ggml/src/ggml-cpu/ggml-cpu.c:897:32
	ldr	x0, [sp, #32]
	.loc	0 897 40 is_stmt 0              ; ggml/src/ggml-cpu/ggml-cpu.c:897:40
	ldr	x8, [sp, #48]
	mov	x1, x8
	.loc	0 897 47                        ; ggml/src/ggml-cpu/ggml-cpu.c:897:47
	ldr	x8, [sp, #56]
	mov	x2, x8
	.loc	0 897 54                        ; ggml/src/ggml-cpu/ggml-cpu.c:897:54
	ldr	x8, [sp, #64]
	mov	x3, x8
	.loc	0 897 61                        ; ggml/src/ggml-cpu/ggml-cpu.c:897:61
	ldr	x8, [sp, #72]
	mov	x4, x8
	.loc	0 897 16                        ; ggml/src/ggml-cpu/ggml-cpu.c:897:16
	bl	_ggml_get_i32_nd
	.loc	0 897 9                         ; ggml/src/ggml-cpu/ggml-cpu.c:897:9
	str	w0, [sp, #44]
	b	LBB16_27
Ltmp160:
LBB16_2:
	.loc	0 899 13 is_stmt 1              ; ggml/src/ggml-cpu/ggml-cpu.c:899:13
	ldr	x8, [sp, #32]
	.loc	0 899 21 is_stmt 0              ; ggml/src/ggml-cpu/ggml-cpu.c:899:21
	ldr	w8, [x8]
	str	w8, [sp, #24]                   ; 4-byte Folded Spill
	.loc	0 899 5                         ; ggml/src/ggml-cpu/ggml-cpu.c:899:5
	cbz	w8, LBB16_23
	b	LBB16_3
LBB16_3:
	.loc	0 0 5                           ; ggml/src/ggml-cpu/ggml-cpu.c:0:5
	ldr	w8, [sp, #24]                   ; 4-byte Folded Reload
	.loc	0 899 5                         ; ggml/src/ggml-cpu/ggml-cpu.c:899:5
	subs	w8, w8, #1
	b.eq	LBB16_17
	b	LBB16_4
LBB16_4:
	.loc	0 0 5                           ; ggml/src/ggml-cpu/ggml-cpu.c:0:5
	ldr	w8, [sp, #24]                   ; 4-byte Folded Reload
	.loc	0 899 5                         ; ggml/src/ggml-cpu/ggml-cpu.c:899:5
	subs	w8, w8, #24
	b.eq	LBB16_8
	b	LBB16_5
LBB16_5:
	.loc	0 0 5                           ; ggml/src/ggml-cpu/ggml-cpu.c:0:5
	ldr	w8, [sp, #24]                   ; 4-byte Folded Reload
	.loc	0 899 5                         ; ggml/src/ggml-cpu/ggml-cpu.c:899:5
	subs	w8, w8, #25
	b.eq	LBB16_11
	b	LBB16_6
LBB16_6:
	.loc	0 0 5                           ; ggml/src/ggml-cpu/ggml-cpu.c:0:5
	ldr	w8, [sp, #24]                   ; 4-byte Folded Reload
	.loc	0 899 5                         ; ggml/src/ggml-cpu/ggml-cpu.c:899:5
	subs	w8, w8, #26
	b.eq	LBB16_14
	b	LBB16_7
LBB16_7:
	.loc	0 0 5                           ; ggml/src/ggml-cpu/ggml-cpu.c:0:5
	ldr	w8, [sp, #24]                   ; 4-byte Folded Reload
	.loc	0 899 5                         ; ggml/src/ggml-cpu/ggml-cpu.c:899:5
	subs	w8, w8, #30
	b.eq	LBB16_20
	b	LBB16_26
LBB16_8:
Ltmp161:
	.loc	0 902 17 is_stmt 1              ; ggml/src/ggml-cpu/ggml-cpu.c:902:17
	ldr	x8, [sp, #32]
	ldr	x8, [x8, #48]
Ltmp162:
	.loc	0 902 17 is_stmt 0              ; ggml/src/ggml-cpu/ggml-cpu.c:902:17
	subs	x8, x8, #1
	b.eq	LBB16_10
	b	LBB16_9
LBB16_9:
Ltmp163:
	.loc	0 902 17                        ; ggml/src/ggml-cpu/ggml-cpu.c:902:17
	mov	x9, sp
	adrp	x8, l_.str.5@PAGE
	add	x8, x8, l_.str.5@PAGEOFF
	str	x8, [x9]
	adrp	x0, l_.str.1@PAGE
	add	x0, x0, l_.str.1@PAGEOFF
	mov	w1, #902                        ; =0x386
	adrp	x2, l_.str.2@PAGE
	add	x2, x2, l_.str.2@PAGEOFF
	bl	_ggml_abort
Ltmp164:
LBB16_10:
	.loc	0 903 36 is_stmt 1              ; ggml/src/ggml-cpu/ggml-cpu.c:903:36
	ldr	x8, [sp, #32]
	.loc	0 903 44 is_stmt 0              ; ggml/src/ggml-cpu/ggml-cpu.c:903:44
	ldr	x8, [x8, #248]
	.loc	0 903 51                        ; ggml/src/ggml-cpu/ggml-cpu.c:903:51
	ldrsw	x9, [sp, #28]
	.loc	0 903 24                        ; ggml/src/ggml-cpu/ggml-cpu.c:903:24
	ldrsb	w8, [x8, x9]
	.loc	0 903 17                        ; ggml/src/ggml-cpu/ggml-cpu.c:903:17
	str	w8, [sp, #44]
	b	LBB16_27
Ltmp165:
LBB16_11:
	.loc	0 907 17 is_stmt 1              ; ggml/src/ggml-cpu/ggml-cpu.c:907:17
	ldr	x8, [sp, #32]
	ldr	x8, [x8, #48]
Ltmp166:
	.loc	0 907 17 is_stmt 0              ; ggml/src/ggml-cpu/ggml-cpu.c:907:17
	subs	x8, x8, #2
	b.eq	LBB16_13
	b	LBB16_12
LBB16_12:
Ltmp167:
	.loc	0 907 17                        ; ggml/src/ggml-cpu/ggml-cpu.c:907:17
	mov	x9, sp
	adrp	x8, l_.str.6@PAGE
	add	x8, x8, l_.str.6@PAGEOFF
	str	x8, [x9]
	adrp	x0, l_.str.1@PAGE
	add	x0, x0, l_.str.1@PAGEOFF
	mov	w1, #907                        ; =0x38b
	adrp	x2, l_.str.2@PAGE
	add	x2, x2, l_.str.2@PAGEOFF
	bl	_ggml_abort
Ltmp168:
LBB16_13:
	.loc	0 908 37 is_stmt 1              ; ggml/src/ggml-cpu/ggml-cpu.c:908:37
	ldr	x8, [sp, #32]
	.loc	0 908 45 is_stmt 0              ; ggml/src/ggml-cpu/ggml-cpu.c:908:45
	ldr	x8, [x8, #248]
	.loc	0 908 52                        ; ggml/src/ggml-cpu/ggml-cpu.c:908:52
	ldrsw	x9, [sp, #28]
	.loc	0 908 24                        ; ggml/src/ggml-cpu/ggml-cpu.c:908:24
	ldrsh	w8, [x8, x9, lsl #1]
	.loc	0 908 17                        ; ggml/src/ggml-cpu/ggml-cpu.c:908:17
	str	w8, [sp, #44]
	b	LBB16_27
Ltmp169:
LBB16_14:
	.loc	0 912 17 is_stmt 1              ; ggml/src/ggml-cpu/ggml-cpu.c:912:17
	ldr	x8, [sp, #32]
	ldr	x8, [x8, #48]
Ltmp170:
	.loc	0 912 17 is_stmt 0              ; ggml/src/ggml-cpu/ggml-cpu.c:912:17
	subs	x8, x8, #4
	b.eq	LBB16_16
	b	LBB16_15
LBB16_15:
Ltmp171:
	.loc	0 912 17                        ; ggml/src/ggml-cpu/ggml-cpu.c:912:17
	mov	x9, sp
	adrp	x8, l_.str.7@PAGE
	add	x8, x8, l_.str.7@PAGEOFF
	str	x8, [x9]
	adrp	x0, l_.str.1@PAGE
	add	x0, x0, l_.str.1@PAGEOFF
	mov	w1, #912                        ; =0x390
	adrp	x2, l_.str.2@PAGE
	add	x2, x2, l_.str.2@PAGEOFF
	bl	_ggml_abort
Ltmp172:
LBB16_16:
	.loc	0 913 37 is_stmt 1              ; ggml/src/ggml-cpu/ggml-cpu.c:913:37
	ldr	x8, [sp, #32]
	.loc	0 913 45 is_stmt 0              ; ggml/src/ggml-cpu/ggml-cpu.c:913:45
	ldr	x8, [x8, #248]
	.loc	0 913 52                        ; ggml/src/ggml-cpu/ggml-cpu.c:913:52
	ldrsw	x9, [sp, #28]
	.loc	0 913 24                        ; ggml/src/ggml-cpu/ggml-cpu.c:913:24
	ldr	w8, [x8, x9, lsl #2]
	.loc	0 913 17                        ; ggml/src/ggml-cpu/ggml-cpu.c:913:17
	str	w8, [sp, #44]
	b	LBB16_27
Ltmp173:
LBB16_17:
	.loc	0 917 17 is_stmt 1              ; ggml/src/ggml-cpu/ggml-cpu.c:917:17
	ldr	x8, [sp, #32]
	ldr	x8, [x8, #48]
Ltmp174:
	.loc	0 917 17 is_stmt 0              ; ggml/src/ggml-cpu/ggml-cpu.c:917:17
	subs	x8, x8, #2
	b.eq	LBB16_19
	b	LBB16_18
LBB16_18:
Ltmp175:
	.loc	0 917 17                        ; ggml/src/ggml-cpu/ggml-cpu.c:917:17
	mov	x9, sp
	adrp	x8, l_.str.8@PAGE
	add	x8, x8, l_.str.8@PAGEOFF
	str	x8, [x9]
	adrp	x0, l_.str.1@PAGE
	add	x0, x0, l_.str.1@PAGEOFF
	mov	w1, #917                        ; =0x395
	adrp	x2, l_.str.2@PAGE
	add	x2, x2, l_.str.2@PAGEOFF
	bl	_ggml_abort
Ltmp176:
LBB16_19:
	.loc	0 918 24 is_stmt 1              ; ggml/src/ggml-cpu/ggml-cpu.c:918:24
	ldr	x8, [sp, #32]
	ldr	x8, [x8, #248]
	ldrsw	x9, [sp, #28]
	ldrh	w0, [x8, x9, lsl #1]
	bl	_ggml_compute_fp16_to_fp32
	fcvtzs	w8, s0
	.loc	0 918 17 is_stmt 0              ; ggml/src/ggml-cpu/ggml-cpu.c:918:17
	str	w8, [sp, #44]
	b	LBB16_27
Ltmp177:
LBB16_20:
	.loc	0 922 17 is_stmt 1              ; ggml/src/ggml-cpu/ggml-cpu.c:922:17
	ldr	x8, [sp, #32]
	ldr	x8, [x8, #48]
Ltmp178:
	.loc	0 922 17 is_stmt 0              ; ggml/src/ggml-cpu/ggml-cpu.c:922:17
	subs	x8, x8, #2
	b.eq	LBB16_22
	b	LBB16_21
LBB16_21:
Ltmp179:
	.loc	0 922 17                        ; ggml/src/ggml-cpu/ggml-cpu.c:922:17
	mov	x9, sp
	adrp	x8, l_.str.9@PAGE
	add	x8, x8, l_.str.9@PAGEOFF
	str	x8, [x9]
	adrp	x0, l_.str.1@PAGE
	add	x0, x0, l_.str.1@PAGEOFF
	mov	w1, #922                        ; =0x39a
	adrp	x2, l_.str.2@PAGE
	add	x2, x2, l_.str.2@PAGEOFF
	bl	_ggml_abort
Ltmp180:
LBB16_22:
	.loc	0 923 24 is_stmt 1              ; ggml/src/ggml-cpu/ggml-cpu.c:923:24
	ldr	x8, [sp, #32]
	ldr	x8, [x8, #248]
	ldrsw	x9, [sp, #28]
	ldrh	w8, [x8, x9, lsl #1]
	mov	x0, x8
	bl	_ggml_compute_bf16_to_fp32
	fcvtzs	w8, s0
	.loc	0 923 17 is_stmt 0              ; ggml/src/ggml-cpu/ggml-cpu.c:923:17
	str	w8, [sp, #44]
	b	LBB16_27
Ltmp181:
LBB16_23:
	.loc	0 927 17 is_stmt 1              ; ggml/src/ggml-cpu/ggml-cpu.c:927:17
	ldr	x8, [sp, #32]
	ldr	x8, [x8, #48]
Ltmp182:
	.loc	0 927 17 is_stmt 0              ; ggml/src/ggml-cpu/ggml-cpu.c:927:17
	subs	x8, x8, #4
	b.eq	LBB16_25
	b	LBB16_24
LBB16_24:
Ltmp183:
	.loc	0 927 17                        ; ggml/src/ggml-cpu/ggml-cpu.c:927:17
	mov	x9, sp
	adrp	x8, l_.str.10@PAGE
	add	x8, x8, l_.str.10@PAGEOFF
	str	x8, [x9]
	adrp	x0, l_.str.1@PAGE
	add	x0, x0, l_.str.1@PAGEOFF
	mov	w1, #927                        ; =0x39f
	adrp	x2, l_.str.2@PAGE
	add	x2, x2, l_.str.2@PAGEOFF
	bl	_ggml_abort
Ltmp184:
LBB16_25:
	.loc	0 928 35 is_stmt 1              ; ggml/src/ggml-cpu/ggml-cpu.c:928:35
	ldr	x8, [sp, #32]
	.loc	0 928 43 is_stmt 0              ; ggml/src/ggml-cpu/ggml-cpu.c:928:43
	ldr	x8, [x8, #248]
	.loc	0 928 50                        ; ggml/src/ggml-cpu/ggml-cpu.c:928:50
	ldrsw	x9, [sp, #28]
	.loc	0 928 24                        ; ggml/src/ggml-cpu/ggml-cpu.c:928:24
	ldr	s0, [x8, x9, lsl #2]
	fcvtzs	w8, s0
	.loc	0 928 17                        ; ggml/src/ggml-cpu/ggml-cpu.c:928:17
	str	w8, [sp, #44]
	b	LBB16_27
Ltmp185:
LBB16_26:
	.loc	0 932 17 is_stmt 1              ; ggml/src/ggml-cpu/ggml-cpu.c:932:17
	adrp	x0, l_.str.1@PAGE
	add	x0, x0, l_.str.1@PAGEOFF
	mov	w1, #932                        ; =0x3a4
	adrp	x2, l_.str.4@PAGE
	add	x2, x2, l_.str.4@PAGEOFF
	bl	_ggml_abort
Ltmp186:
LBB16_27:
	.loc	0 935 1                         ; ggml/src/ggml-cpu/ggml-cpu.c:935:1
	ldr	w8, [sp, #44]
	str	w8, [sp, #20]                   ; 4-byte Folded Spill
	ldur	x9, [x29, #-8]
	adrp	x8, ___stack_chk_guard@GOTPAGE
	ldr	x8, [x8, ___stack_chk_guard@GOTPAGEOFF]
	ldr	x8, [x8]
	subs	x8, x8, x9
	b.eq	LBB16_29
	b	LBB16_28
LBB16_28:
	bl	___stack_chk_fail
LBB16_29:
	.loc	0 0 1 is_stmt 0                 ; ggml/src/ggml-cpu/ggml-cpu.c:0:1
	ldr	w0, [sp, #20]                   ; 4-byte Folded Reload
	.loc	0 935 1 epilogue_begin          ; ggml/src/ggml-cpu/ggml-cpu.c:935:1
	ldp	x29, x30, [sp, #96]             ; 16-byte Folded Reload
	add	sp, sp, #112
	ret
Ltmp187:
Lfunc_end16:
	.cfi_endproc
                                        ; -- End function
	.globl	_ggml_get_i32_nd                ; -- Begin function ggml_get_i32_nd
	.p2align	2
_ggml_get_i32_nd:                       ; @ggml_get_i32_nd
Lfunc_begin17:
	.loc	0 982 0 is_stmt 1               ; ggml/src/ggml-cpu/ggml-cpu.c:982:0
	.cfi_startproc
; %bb.0:
	sub	sp, sp, #64
	stp	x29, x30, [sp, #48]             ; 16-byte Folded Spill
	add	x29, sp, #48
	.cfi_def_cfa w29, 16
	.cfi_offset w30, -8
	.cfi_offset w29, -16
	stur	x0, [x29, #-16]
	stur	w1, [x29, #-20]
	str	w2, [sp, #24]
	str	w3, [sp, #20]
	str	w4, [sp, #16]
Ltmp188:
	.loc	0 983 30 prologue_end           ; ggml/src/ggml-cpu/ggml-cpu.c:983:30
	ldur	x8, [x29, #-16]
	.loc	0 983 38 is_stmt 0              ; ggml/src/ggml-cpu/ggml-cpu.c:983:38
	ldr	x8, [x8, #248]
	.loc	0 983 45                        ; ggml/src/ggml-cpu/ggml-cpu.c:983:45
	ldursw	x9, [x29, #-20]
	.loc	0 983 48                        ; ggml/src/ggml-cpu/ggml-cpu.c:983:48
	ldur	x10, [x29, #-16]
	ldr	x10, [x10, #48]
	.loc	0 983 47                        ; ggml/src/ggml-cpu/ggml-cpu.c:983:47
	mul	x12, x9, x10
	.loc	0 983 64                        ; ggml/src/ggml-cpu/ggml-cpu.c:983:64
	ldrsw	x9, [sp, #24]
	.loc	0 983 67                        ; ggml/src/ggml-cpu/ggml-cpu.c:983:67
	ldur	x10, [x29, #-16]
	ldr	x10, [x10, #56]
	.loc	0 983 66                        ; ggml/src/ggml-cpu/ggml-cpu.c:983:66
	mul	x11, x9, x10
	.loc	0 983 83                        ; ggml/src/ggml-cpu/ggml-cpu.c:983:83
	ldrsw	x9, [sp, #20]
	.loc	0 983 86                        ; ggml/src/ggml-cpu/ggml-cpu.c:983:86
	ldur	x10, [x29, #-16]
	ldr	x10, [x10, #64]
	.loc	0 983 85                        ; ggml/src/ggml-cpu/ggml-cpu.c:983:85
	mul	x10, x9, x10
	.loc	0 983 102                       ; ggml/src/ggml-cpu/ggml-cpu.c:983:102
	ldrsw	x9, [sp, #16]
	.loc	0 983 105                       ; ggml/src/ggml-cpu/ggml-cpu.c:983:105
	ldur	x13, [x29, #-16]
	ldr	x13, [x13, #72]
	.loc	0 983 104                       ; ggml/src/ggml-cpu/ggml-cpu.c:983:104
	mul	x9, x9, x13
	.loc	0 983 43                        ; ggml/src/ggml-cpu/ggml-cpu.c:983:43
	add	x8, x8, x12
	.loc	0 983 62                        ; ggml/src/ggml-cpu/ggml-cpu.c:983:62
	add	x8, x8, x11
	.loc	0 983 81                        ; ggml/src/ggml-cpu/ggml-cpu.c:983:81
	add	x8, x8, x10
	.loc	0 983 100                       ; ggml/src/ggml-cpu/ggml-cpu.c:983:100
	add	x8, x8, x9
	.loc	0 983 12                        ; ggml/src/ggml-cpu/ggml-cpu.c:983:12
	str	x8, [sp, #8]
	.loc	0 984 13 is_stmt 1              ; ggml/src/ggml-cpu/ggml-cpu.c:984:13
	ldur	x8, [x29, #-16]
	.loc	0 984 21 is_stmt 0              ; ggml/src/ggml-cpu/ggml-cpu.c:984:21
	ldr	w8, [x8]
	str	w8, [sp, #4]                    ; 4-byte Folded Spill
	.loc	0 984 5                         ; ggml/src/ggml-cpu/ggml-cpu.c:984:5
	cbz	w8, LBB17_11
	b	LBB17_1
LBB17_1:
	.loc	0 0 5                           ; ggml/src/ggml-cpu/ggml-cpu.c:0:5
	ldr	w8, [sp, #4]                    ; 4-byte Folded Reload
	.loc	0 984 5                         ; ggml/src/ggml-cpu/ggml-cpu.c:984:5
	subs	w8, w8, #1
	b.eq	LBB17_9
	b	LBB17_2
LBB17_2:
	.loc	0 0 5                           ; ggml/src/ggml-cpu/ggml-cpu.c:0:5
	ldr	w8, [sp, #4]                    ; 4-byte Folded Reload
	.loc	0 984 5                         ; ggml/src/ggml-cpu/ggml-cpu.c:984:5
	subs	w8, w8, #24
	b.eq	LBB17_6
	b	LBB17_3
LBB17_3:
	.loc	0 0 5                           ; ggml/src/ggml-cpu/ggml-cpu.c:0:5
	ldr	w8, [sp, #4]                    ; 4-byte Folded Reload
	.loc	0 984 5                         ; ggml/src/ggml-cpu/ggml-cpu.c:984:5
	subs	w8, w8, #25
	b.eq	LBB17_7
	b	LBB17_4
LBB17_4:
	.loc	0 0 5                           ; ggml/src/ggml-cpu/ggml-cpu.c:0:5
	ldr	w8, [sp, #4]                    ; 4-byte Folded Reload
	.loc	0 984 5                         ; ggml/src/ggml-cpu/ggml-cpu.c:984:5
	subs	w8, w8, #26
	b.eq	LBB17_8
	b	LBB17_5
LBB17_5:
	.loc	0 0 5                           ; ggml/src/ggml-cpu/ggml-cpu.c:0:5
	ldr	w8, [sp, #4]                    ; 4-byte Folded Reload
	.loc	0 984 5                         ; ggml/src/ggml-cpu/ggml-cpu.c:984:5
	subs	w8, w8, #30
	b.eq	LBB17_10
	b	LBB17_12
LBB17_6:
Ltmp189:
	.loc	0 986 32 is_stmt 1              ; ggml/src/ggml-cpu/ggml-cpu.c:986:32
	ldr	x8, [sp, #8]
	.loc	0 986 20 is_stmt 0              ; ggml/src/ggml-cpu/ggml-cpu.c:986:20
	ldrsb	w8, [x8]
	.loc	0 986 13                        ; ggml/src/ggml-cpu/ggml-cpu.c:986:13
	stur	w8, [x29, #-4]
	b	LBB17_13
LBB17_7:
	.loc	0 988 33 is_stmt 1              ; ggml/src/ggml-cpu/ggml-cpu.c:988:33
	ldr	x8, [sp, #8]
	.loc	0 988 20 is_stmt 0              ; ggml/src/ggml-cpu/ggml-cpu.c:988:20
	ldrsh	w8, [x8]
	.loc	0 988 13                        ; ggml/src/ggml-cpu/ggml-cpu.c:988:13
	stur	w8, [x29, #-4]
	b	LBB17_13
LBB17_8:
	.loc	0 990 33 is_stmt 1              ; ggml/src/ggml-cpu/ggml-cpu.c:990:33
	ldr	x8, [sp, #8]
	.loc	0 990 20 is_stmt 0              ; ggml/src/ggml-cpu/ggml-cpu.c:990:20
	ldr	w8, [x8]
	.loc	0 990 13                        ; ggml/src/ggml-cpu/ggml-cpu.c:990:13
	stur	w8, [x29, #-4]
	b	LBB17_13
LBB17_9:
	.loc	0 992 20 is_stmt 1              ; ggml/src/ggml-cpu/ggml-cpu.c:992:20
	ldr	x8, [sp, #8]
	ldrh	w0, [x8]
	bl	_ggml_compute_fp16_to_fp32
	fcvtzs	w8, s0
	.loc	0 992 13 is_stmt 0              ; ggml/src/ggml-cpu/ggml-cpu.c:992:13
	stur	w8, [x29, #-4]
	b	LBB17_13
LBB17_10:
	.loc	0 994 20 is_stmt 1              ; ggml/src/ggml-cpu/ggml-cpu.c:994:20
	ldr	x8, [sp, #8]
	ldrh	w8, [x8]
	mov	x0, x8
	bl	_ggml_compute_bf16_to_fp32
	fcvtzs	w8, s0
	.loc	0 994 13 is_stmt 0              ; ggml/src/ggml-cpu/ggml-cpu.c:994:13
	stur	w8, [x29, #-4]
	b	LBB17_13
LBB17_11:
	.loc	0 996 31 is_stmt 1              ; ggml/src/ggml-cpu/ggml-cpu.c:996:31
	ldr	x8, [sp, #8]
	.loc	0 996 20 is_stmt 0              ; ggml/src/ggml-cpu/ggml-cpu.c:996:20
	ldr	s0, [x8]
	fcvtzs	w8, s0
	.loc	0 996 13                        ; ggml/src/ggml-cpu/ggml-cpu.c:996:13
	stur	w8, [x29, #-4]
	b	LBB17_13
LBB17_12:
	.loc	0 998 13 is_stmt 1              ; ggml/src/ggml-cpu/ggml-cpu.c:998:13
	adrp	x0, l_.str.1@PAGE
	add	x0, x0, l_.str.1@PAGEOFF
	mov	w1, #998                        ; =0x3e6
	adrp	x2, l_.str.4@PAGE
	add	x2, x2, l_.str.4@PAGEOFF
	bl	_ggml_abort
Ltmp190:
LBB17_13:
	.loc	0 1000 1                        ; ggml/src/ggml-cpu/ggml-cpu.c:1000:1
	ldur	w0, [x29, #-4]
	.loc	0 1000 1 epilogue_begin is_stmt 0 ; ggml/src/ggml-cpu/ggml-cpu.c:1000:1
	ldp	x29, x30, [sp, #48]             ; 16-byte Folded Reload
	add	sp, sp, #64
	ret
Ltmp191:
Lfunc_end17:
	.cfi_endproc
                                        ; -- End function
	.p2align	2                               ; -- Begin function ggml_compute_fp16_to_fp32
_ggml_compute_fp16_to_fp32:             ; @ggml_compute_fp16_to_fp32
Lfunc_begin18:
	.loc	6 333 0 is_stmt 1               ; ggml/src/ggml-impl.h:333:0
	.cfi_startproc
; %bb.0:
	sub	sp, sp, #16
	.cfi_def_cfa_offset 16
	strh	w0, [sp, #14]
Ltmp193:
	.loc	6 335 9 prologue_end            ; ggml/src/ggml-impl.h:335:9
	ldrh	w8, [sp, #14]
	strh	w8, [sp, #12]
	.loc	6 336 23                        ; ggml/src/ggml-impl.h:336:23
	ldr	h0, [sp, #12]
	.loc	6 336 16 is_stmt 0              ; ggml/src/ggml-impl.h:336:16
	fcvt	s0, h0
	.loc	6 336 9 epilogue_begin          ; ggml/src/ggml-impl.h:336:9
	add	sp, sp, #16
	ret
Ltmp194:
Lfunc_end18:
	.cfi_endproc
                                        ; -- End function
	.p2align	2                               ; -- Begin function ggml_compute_bf16_to_fp32
_ggml_compute_bf16_to_fp32:             ; @ggml_compute_bf16_to_fp32
Lfunc_begin19:
	.loc	6 555 0 is_stmt 1               ; ggml/src/ggml-impl.h:555:0
	.cfi_startproc
; %bb.0:
	sub	sp, sp, #16
	.cfi_def_cfa_offset 16
	mov	x8, x0
	strh	w8, [sp, #14]
Ltmp196:
	.loc	6 560 23 prologue_end           ; ggml/src/ggml-impl.h:560:23
	ldrh	w8, [sp, #14]
	.loc	6 560 28 is_stmt 0              ; ggml/src/ggml-impl.h:560:28
	lsl	w8, w8, #16
	.loc	6 560 9                         ; ggml/src/ggml-impl.h:560:9
	str	w8, [sp, #8]
	.loc	6 561 14 is_stmt 1              ; ggml/src/ggml-impl.h:561:14
	ldr	s0, [sp, #8]
	.loc	6 561 5 epilogue_begin is_stmt 0 ; ggml/src/ggml-impl.h:561:5
	add	sp, sp, #16
	ret
Ltmp197:
Lfunc_end19:
	.cfi_endproc
                                        ; -- End function
	.globl	_ggml_set_i32_1d                ; -- Begin function ggml_set_i32_1d
	.p2align	2
_ggml_set_i32_1d:                       ; @ggml_set_i32_1d
Lfunc_begin20:
	.loc	0 937 0 is_stmt 1               ; ggml/src/ggml-cpu/ggml-cpu.c:937:0
	.cfi_startproc
; %bb.0:
	sub	sp, sp, #112
	stp	x29, x30, [sp, #96]             ; 16-byte Folded Spill
	add	x29, sp, #96
	.cfi_def_cfa w29, 16
	.cfi_offset w30, -8
	.cfi_offset w29, -16
	adrp	x8, ___stack_chk_guard@GOTPAGE
	ldr	x8, [x8, ___stack_chk_guard@GOTPAGEOFF]
	ldr	x8, [x8]
	stur	x8, [x29, #-8]
	str	x0, [sp, #40]
	str	w1, [sp, #36]
	str	w2, [sp, #32]
Ltmp198:
	.loc	0 938 29 prologue_end           ; ggml/src/ggml-cpu/ggml-cpu.c:938:29
	ldr	x0, [sp, #40]
	.loc	0 938 10 is_stmt 0              ; ggml/src/ggml-cpu/ggml-cpu.c:938:10
	bl	_ggml_is_contiguous
Ltmp199:
	.loc	0 938 9                         ; ggml/src/ggml-cpu/ggml-cpu.c:938:9
	tbnz	w0, #0, LBB20_2
	b	LBB20_1
LBB20_1:
Ltmp200:
	.loc	0 939 17 is_stmt 1              ; ggml/src/ggml-cpu/ggml-cpu.c:939:17
	movi.2d	v0, #0000000000000000
	add	x2, sp, #48
	str	q0, [sp, #48]
	str	q0, [sp, #64]
	.loc	0 940 28                        ; ggml/src/ggml-cpu/ggml-cpu.c:940:28
	ldr	x0, [sp, #40]
	.loc	0 940 36 is_stmt 0              ; ggml/src/ggml-cpu/ggml-cpu.c:940:36
	ldrsw	x1, [sp, #36]
	.loc	0 940 48                        ; ggml/src/ggml-cpu/ggml-cpu.c:940:48
	add	x3, x2, #8
	.loc	0 940 56                        ; ggml/src/ggml-cpu/ggml-cpu.c:940:56
	add	x4, x2, #16
	.loc	0 940 64                        ; ggml/src/ggml-cpu/ggml-cpu.c:940:64
	add	x5, x2, #24
	.loc	0 940 9                         ; ggml/src/ggml-cpu/ggml-cpu.c:940:9
	bl	_ggml_unravel_index
	.loc	0 941 25 is_stmt 1              ; ggml/src/ggml-cpu/ggml-cpu.c:941:25
	ldr	x0, [sp, #40]
	.loc	0 941 33 is_stmt 0              ; ggml/src/ggml-cpu/ggml-cpu.c:941:33
	ldr	x8, [sp, #48]
	mov	x1, x8
	.loc	0 941 40                        ; ggml/src/ggml-cpu/ggml-cpu.c:941:40
	ldr	x8, [sp, #56]
	mov	x2, x8
	.loc	0 941 47                        ; ggml/src/ggml-cpu/ggml-cpu.c:941:47
	ldr	x8, [sp, #64]
	mov	x3, x8
	.loc	0 941 54                        ; ggml/src/ggml-cpu/ggml-cpu.c:941:54
	ldr	x8, [sp, #72]
	mov	x4, x8
	.loc	0 941 61                        ; ggml/src/ggml-cpu/ggml-cpu.c:941:61
	ldr	w5, [sp, #32]
	.loc	0 941 9                         ; ggml/src/ggml-cpu/ggml-cpu.c:941:9
	bl	_ggml_set_i32_nd
	.loc	0 942 9 is_stmt 1               ; ggml/src/ggml-cpu/ggml-cpu.c:942:9
	b	LBB20_27
Ltmp201:
LBB20_2:
	.loc	0 944 13                        ; ggml/src/ggml-cpu/ggml-cpu.c:944:13
	ldr	x8, [sp, #40]
	.loc	0 944 21 is_stmt 0              ; ggml/src/ggml-cpu/ggml-cpu.c:944:21
	ldr	w8, [x8]
	str	w8, [sp, #24]                   ; 4-byte Folded Spill
	.loc	0 944 5                         ; ggml/src/ggml-cpu/ggml-cpu.c:944:5
	cbz	w8, LBB20_23
	b	LBB20_3
LBB20_3:
	.loc	0 0 5                           ; ggml/src/ggml-cpu/ggml-cpu.c:0:5
	ldr	w8, [sp, #24]                   ; 4-byte Folded Reload
	.loc	0 944 5                         ; ggml/src/ggml-cpu/ggml-cpu.c:944:5
	subs	w8, w8, #1
	b.eq	LBB20_17
	b	LBB20_4
LBB20_4:
	.loc	0 0 5                           ; ggml/src/ggml-cpu/ggml-cpu.c:0:5
	ldr	w8, [sp, #24]                   ; 4-byte Folded Reload
	.loc	0 944 5                         ; ggml/src/ggml-cpu/ggml-cpu.c:944:5
	subs	w8, w8, #24
	b.eq	LBB20_8
	b	LBB20_5
LBB20_5:
	.loc	0 0 5                           ; ggml/src/ggml-cpu/ggml-cpu.c:0:5
	ldr	w8, [sp, #24]                   ; 4-byte Folded Reload
	.loc	0 944 5                         ; ggml/src/ggml-cpu/ggml-cpu.c:944:5
	subs	w8, w8, #25
	b.eq	LBB20_11
	b	LBB20_6
LBB20_6:
	.loc	0 0 5                           ; ggml/src/ggml-cpu/ggml-cpu.c:0:5
	ldr	w8, [sp, #24]                   ; 4-byte Folded Reload
	.loc	0 944 5                         ; ggml/src/ggml-cpu/ggml-cpu.c:944:5
	subs	w8, w8, #26
	b.eq	LBB20_14
	b	LBB20_7
LBB20_7:
	.loc	0 0 5                           ; ggml/src/ggml-cpu/ggml-cpu.c:0:5
	ldr	w8, [sp, #24]                   ; 4-byte Folded Reload
	.loc	0 944 5                         ; ggml/src/ggml-cpu/ggml-cpu.c:944:5
	subs	w8, w8, #30
	b.eq	LBB20_20
	b	LBB20_26
LBB20_8:
Ltmp202:
	.loc	0 947 17 is_stmt 1              ; ggml/src/ggml-cpu/ggml-cpu.c:947:17
	ldr	x8, [sp, #40]
	ldr	x8, [x8, #48]
Ltmp203:
	.loc	0 947 17 is_stmt 0              ; ggml/src/ggml-cpu/ggml-cpu.c:947:17
	subs	x8, x8, #1
	b.eq	LBB20_10
	b	LBB20_9
LBB20_9:
Ltmp204:
	.loc	0 947 17                        ; ggml/src/ggml-cpu/ggml-cpu.c:947:17
	mov	x9, sp
	adrp	x8, l_.str.5@PAGE
	add	x8, x8, l_.str.5@PAGEOFF
	str	x8, [x9]
	adrp	x0, l_.str.1@PAGE
	add	x0, x0, l_.str.1@PAGEOFF
	mov	w1, #947                        ; =0x3b3
	adrp	x2, l_.str.2@PAGE
	add	x2, x2, l_.str.2@PAGEOFF
	bl	_ggml_abort
Ltmp205:
LBB20_10:
	.loc	0 948 49 is_stmt 1              ; ggml/src/ggml-cpu/ggml-cpu.c:948:49
	ldr	w8, [sp, #32]
	.loc	0 948 29 is_stmt 0              ; ggml/src/ggml-cpu/ggml-cpu.c:948:29
	ldr	x9, [sp, #40]
	.loc	0 948 37                        ; ggml/src/ggml-cpu/ggml-cpu.c:948:37
	ldr	x9, [x9, #248]
	.loc	0 948 44                        ; ggml/src/ggml-cpu/ggml-cpu.c:948:44
	ldrsw	x10, [sp, #36]
	.loc	0 948 47                        ; ggml/src/ggml-cpu/ggml-cpu.c:948:47
	strb	w8, [x9, x10]
Ltmp206:
	.loc	0 949 15 is_stmt 1              ; ggml/src/ggml-cpu/ggml-cpu.c:949:15
	b	LBB20_27
LBB20_11:
Ltmp207:
	.loc	0 952 17                        ; ggml/src/ggml-cpu/ggml-cpu.c:952:17
	ldr	x8, [sp, #40]
	ldr	x8, [x8, #48]
Ltmp208:
	.loc	0 952 17 is_stmt 0              ; ggml/src/ggml-cpu/ggml-cpu.c:952:17
	subs	x8, x8, #2
	b.eq	LBB20_13
	b	LBB20_12
LBB20_12:
Ltmp209:
	.loc	0 952 17                        ; ggml/src/ggml-cpu/ggml-cpu.c:952:17
	mov	x9, sp
	adrp	x8, l_.str.6@PAGE
	add	x8, x8, l_.str.6@PAGEOFF
	str	x8, [x9]
	adrp	x0, l_.str.1@PAGE
	add	x0, x0, l_.str.1@PAGEOFF
	mov	w1, #952                        ; =0x3b8
	adrp	x2, l_.str.2@PAGE
	add	x2, x2, l_.str.2@PAGEOFF
	bl	_ggml_abort
Ltmp210:
LBB20_13:
	.loc	0 953 50 is_stmt 1              ; ggml/src/ggml-cpu/ggml-cpu.c:953:50
	ldr	w8, [sp, #32]
	.loc	0 953 30 is_stmt 0              ; ggml/src/ggml-cpu/ggml-cpu.c:953:30
	ldr	x9, [sp, #40]
	.loc	0 953 38                        ; ggml/src/ggml-cpu/ggml-cpu.c:953:38
	ldr	x9, [x9, #248]
	.loc	0 953 45                        ; ggml/src/ggml-cpu/ggml-cpu.c:953:45
	ldrsw	x10, [sp, #36]
	.loc	0 953 48                        ; ggml/src/ggml-cpu/ggml-cpu.c:953:48
	strh	w8, [x9, x10, lsl #1]
Ltmp211:
	.loc	0 954 15 is_stmt 1              ; ggml/src/ggml-cpu/ggml-cpu.c:954:15
	b	LBB20_27
LBB20_14:
Ltmp212:
	.loc	0 957 17                        ; ggml/src/ggml-cpu/ggml-cpu.c:957:17
	ldr	x8, [sp, #40]
	ldr	x8, [x8, #48]
Ltmp213:
	.loc	0 957 17 is_stmt 0              ; ggml/src/ggml-cpu/ggml-cpu.c:957:17
	subs	x8, x8, #4
	b.eq	LBB20_16
	b	LBB20_15
LBB20_15:
Ltmp214:
	.loc	0 957 17                        ; ggml/src/ggml-cpu/ggml-cpu.c:957:17
	mov	x9, sp
	adrp	x8, l_.str.7@PAGE
	add	x8, x8, l_.str.7@PAGEOFF
	str	x8, [x9]
	adrp	x0, l_.str.1@PAGE
	add	x0, x0, l_.str.1@PAGEOFF
	mov	w1, #957                        ; =0x3bd
	adrp	x2, l_.str.2@PAGE
	add	x2, x2, l_.str.2@PAGEOFF
	bl	_ggml_abort
Ltmp215:
LBB20_16:
	.loc	0 958 50 is_stmt 1              ; ggml/src/ggml-cpu/ggml-cpu.c:958:50
	ldr	w8, [sp, #32]
	.loc	0 958 30 is_stmt 0              ; ggml/src/ggml-cpu/ggml-cpu.c:958:30
	ldr	x9, [sp, #40]
	.loc	0 958 38                        ; ggml/src/ggml-cpu/ggml-cpu.c:958:38
	ldr	x9, [x9, #248]
	.loc	0 958 45                        ; ggml/src/ggml-cpu/ggml-cpu.c:958:45
	ldrsw	x10, [sp, #36]
	.loc	0 958 48                        ; ggml/src/ggml-cpu/ggml-cpu.c:958:48
	str	w8, [x9, x10, lsl #2]
Ltmp216:
	.loc	0 959 15 is_stmt 1              ; ggml/src/ggml-cpu/ggml-cpu.c:959:15
	b	LBB20_27
LBB20_17:
Ltmp217:
	.loc	0 962 17                        ; ggml/src/ggml-cpu/ggml-cpu.c:962:17
	ldr	x8, [sp, #40]
	ldr	x8, [x8, #48]
Ltmp218:
	.loc	0 962 17 is_stmt 0              ; ggml/src/ggml-cpu/ggml-cpu.c:962:17
	subs	x8, x8, #2
	b.eq	LBB20_19
	b	LBB20_18
LBB20_18:
Ltmp219:
	.loc	0 962 17                        ; ggml/src/ggml-cpu/ggml-cpu.c:962:17
	mov	x9, sp
	adrp	x8, l_.str.8@PAGE
	add	x8, x8, l_.str.8@PAGEOFF
	str	x8, [x9]
	adrp	x0, l_.str.1@PAGE
	add	x0, x0, l_.str.1@PAGEOFF
	mov	w1, #962                        ; =0x3c2
	adrp	x2, l_.str.2@PAGE
	add	x2, x2, l_.str.2@PAGEOFF
	bl	_ggml_abort
Ltmp220:
LBB20_19:
	.loc	0 963 54 is_stmt 1              ; ggml/src/ggml-cpu/ggml-cpu.c:963:54
	ldr	s0, [sp, #32]
	scvtf	s0, s0
	bl	_ggml_compute_fp32_to_fp16
	.loc	0 963 34 is_stmt 0              ; ggml/src/ggml-cpu/ggml-cpu.c:963:34
	ldr	x8, [sp, #40]
	.loc	0 963 42                        ; ggml/src/ggml-cpu/ggml-cpu.c:963:42
	ldr	x8, [x8, #248]
	.loc	0 963 49                        ; ggml/src/ggml-cpu/ggml-cpu.c:963:49
	ldrsw	x9, [sp, #36]
	.loc	0 963 52                        ; ggml/src/ggml-cpu/ggml-cpu.c:963:52
	strh	w0, [x8, x9, lsl #1]
Ltmp221:
	.loc	0 964 15 is_stmt 1              ; ggml/src/ggml-cpu/ggml-cpu.c:964:15
	b	LBB20_27
LBB20_20:
Ltmp222:
	.loc	0 967 17                        ; ggml/src/ggml-cpu/ggml-cpu.c:967:17
	ldr	x8, [sp, #40]
	ldr	x8, [x8, #48]
Ltmp223:
	.loc	0 967 17 is_stmt 0              ; ggml/src/ggml-cpu/ggml-cpu.c:967:17
	subs	x8, x8, #2
	b.eq	LBB20_22
	b	LBB20_21
LBB20_21:
Ltmp224:
	.loc	0 967 17                        ; ggml/src/ggml-cpu/ggml-cpu.c:967:17
	mov	x9, sp
	adrp	x8, l_.str.9@PAGE
	add	x8, x8, l_.str.9@PAGEOFF
	str	x8, [x9]
	adrp	x0, l_.str.1@PAGE
	add	x0, x0, l_.str.1@PAGEOFF
	mov	w1, #967                        ; =0x3c7
	adrp	x2, l_.str.2@PAGE
	add	x2, x2, l_.str.2@PAGEOFF
	bl	_ggml_abort
Ltmp225:
LBB20_22:
	.loc	0 968 34 is_stmt 1              ; ggml/src/ggml-cpu/ggml-cpu.c:968:34
	ldr	x8, [sp, #40]
	.loc	0 968 42 is_stmt 0              ; ggml/src/ggml-cpu/ggml-cpu.c:968:42
	ldr	x8, [x8, #248]
	.loc	0 968 49                        ; ggml/src/ggml-cpu/ggml-cpu.c:968:49
	ldrsw	x9, [sp, #36]
	.loc	0 968 17                        ; ggml/src/ggml-cpu/ggml-cpu.c:968:17
	add	x8, x8, x9, lsl #1
	str	x8, [sp, #16]                   ; 8-byte Folded Spill
	.loc	0 968 54                        ; ggml/src/ggml-cpu/ggml-cpu.c:968:54
	ldr	s0, [sp, #32]
	scvtf	s0, s0
	bl	_ggml_compute_fp32_to_bf16
	ldr	x9, [sp, #16]                   ; 8-byte Folded Reload
	strh	w0, [sp, #30]
	ldrh	w8, [sp, #30]
	strh	w8, [x9]
Ltmp226:
	.loc	0 969 15 is_stmt 1              ; ggml/src/ggml-cpu/ggml-cpu.c:969:15
	b	LBB20_27
LBB20_23:
Ltmp227:
	.loc	0 972 17                        ; ggml/src/ggml-cpu/ggml-cpu.c:972:17
	ldr	x8, [sp, #40]
	ldr	x8, [x8, #48]
Ltmp228:
	.loc	0 972 17 is_stmt 0              ; ggml/src/ggml-cpu/ggml-cpu.c:972:17
	subs	x8, x8, #4
	b.eq	LBB20_25
	b	LBB20_24
LBB20_24:
Ltmp229:
	.loc	0 972 17                        ; ggml/src/ggml-cpu/ggml-cpu.c:972:17
	mov	x9, sp
	adrp	x8, l_.str.10@PAGE
	add	x8, x8, l_.str.10@PAGEOFF
	str	x8, [x9]
	adrp	x0, l_.str.1@PAGE
	add	x0, x0, l_.str.1@PAGEOFF
	mov	w1, #972                        ; =0x3cc
	adrp	x2, l_.str.2@PAGE
	add	x2, x2, l_.str.2@PAGEOFF
	bl	_ggml_abort
Ltmp230:
LBB20_25:
	.loc	0 973 48 is_stmt 1              ; ggml/src/ggml-cpu/ggml-cpu.c:973:48
	ldr	s0, [sp, #32]
	scvtf	s0, s0
	.loc	0 973 28 is_stmt 0              ; ggml/src/ggml-cpu/ggml-cpu.c:973:28
	ldr	x8, [sp, #40]
	.loc	0 973 36                        ; ggml/src/ggml-cpu/ggml-cpu.c:973:36
	ldr	x8, [x8, #248]
	.loc	0 973 43                        ; ggml/src/ggml-cpu/ggml-cpu.c:973:43
	ldrsw	x9, [sp, #36]
	.loc	0 973 46                        ; ggml/src/ggml-cpu/ggml-cpu.c:973:46
	str	s0, [x8, x9, lsl #2]
Ltmp231:
	.loc	0 974 15 is_stmt 1              ; ggml/src/ggml-cpu/ggml-cpu.c:974:15
	b	LBB20_27
LBB20_26:
Ltmp232:
	.loc	0 977 17                        ; ggml/src/ggml-cpu/ggml-cpu.c:977:17
	adrp	x0, l_.str.1@PAGE
	add	x0, x0, l_.str.1@PAGEOFF
	mov	w1, #977                        ; =0x3d1
	adrp	x2, l_.str.4@PAGE
	add	x2, x2, l_.str.4@PAGEOFF
	bl	_ggml_abort
Ltmp233:
LBB20_27:
	.loc	0 980 1                         ; ggml/src/ggml-cpu/ggml-cpu.c:980:1
	ldur	x9, [x29, #-8]
	adrp	x8, ___stack_chk_guard@GOTPAGE
	ldr	x8, [x8, ___stack_chk_guard@GOTPAGEOFF]
	ldr	x8, [x8]
	subs	x8, x8, x9
	b.eq	LBB20_29
	b	LBB20_28
LBB20_28:
	bl	___stack_chk_fail
LBB20_29:
	.loc	0 980 1 epilogue_begin is_stmt 0 ; ggml/src/ggml-cpu/ggml-cpu.c:980:1
	ldp	x29, x30, [sp, #96]             ; 16-byte Folded Reload
	add	sp, sp, #112
	ret
Ltmp234:
Lfunc_end20:
	.cfi_endproc
                                        ; -- End function
	.globl	_ggml_set_i32_nd                ; -- Begin function ggml_set_i32_nd
	.p2align	2
_ggml_set_i32_nd:                       ; @ggml_set_i32_nd
Lfunc_begin21:
	.loc	0 1002 0 is_stmt 1              ; ggml/src/ggml-cpu/ggml-cpu.c:1002:0
	.cfi_startproc
; %bb.0:
	sub	sp, sp, #80
	stp	x29, x30, [sp, #64]             ; 16-byte Folded Spill
	add	x29, sp, #64
	.cfi_def_cfa w29, 16
	.cfi_offset w30, -8
	.cfi_offset w29, -16
	stur	x0, [x29, #-8]
	stur	w1, [x29, #-12]
	stur	w2, [x29, #-16]
	stur	w3, [x29, #-20]
	stur	w4, [x29, #-24]
	stur	w5, [x29, #-28]
Ltmp235:
	.loc	0 1003 30 prologue_end          ; ggml/src/ggml-cpu/ggml-cpu.c:1003:30
	ldur	x8, [x29, #-8]
	.loc	0 1003 38 is_stmt 0             ; ggml/src/ggml-cpu/ggml-cpu.c:1003:38
	ldr	x8, [x8, #248]
	.loc	0 1003 45                       ; ggml/src/ggml-cpu/ggml-cpu.c:1003:45
	ldursw	x9, [x29, #-12]
	.loc	0 1003 48                       ; ggml/src/ggml-cpu/ggml-cpu.c:1003:48
	ldur	x10, [x29, #-8]
	ldr	x10, [x10, #48]
	.loc	0 1003 47                       ; ggml/src/ggml-cpu/ggml-cpu.c:1003:47
	mul	x12, x9, x10
	.loc	0 1003 64                       ; ggml/src/ggml-cpu/ggml-cpu.c:1003:64
	ldursw	x9, [x29, #-16]
	.loc	0 1003 67                       ; ggml/src/ggml-cpu/ggml-cpu.c:1003:67
	ldur	x10, [x29, #-8]
	ldr	x10, [x10, #56]
	.loc	0 1003 66                       ; ggml/src/ggml-cpu/ggml-cpu.c:1003:66
	mul	x11, x9, x10
	.loc	0 1003 83                       ; ggml/src/ggml-cpu/ggml-cpu.c:1003:83
	ldursw	x9, [x29, #-20]
	.loc	0 1003 86                       ; ggml/src/ggml-cpu/ggml-cpu.c:1003:86
	ldur	x10, [x29, #-8]
	ldr	x10, [x10, #64]
	.loc	0 1003 85                       ; ggml/src/ggml-cpu/ggml-cpu.c:1003:85
	mul	x10, x9, x10
	.loc	0 1003 102                      ; ggml/src/ggml-cpu/ggml-cpu.c:1003:102
	ldursw	x9, [x29, #-24]
	.loc	0 1003 105                      ; ggml/src/ggml-cpu/ggml-cpu.c:1003:105
	ldur	x13, [x29, #-8]
	ldr	x13, [x13, #72]
	.loc	0 1003 104                      ; ggml/src/ggml-cpu/ggml-cpu.c:1003:104
	mul	x9, x9, x13
	.loc	0 1003 43                       ; ggml/src/ggml-cpu/ggml-cpu.c:1003:43
	add	x8, x8, x12
	.loc	0 1003 62                       ; ggml/src/ggml-cpu/ggml-cpu.c:1003:62
	add	x8, x8, x11
	.loc	0 1003 81                       ; ggml/src/ggml-cpu/ggml-cpu.c:1003:81
	add	x8, x8, x10
	.loc	0 1003 100                      ; ggml/src/ggml-cpu/ggml-cpu.c:1003:100
	add	x8, x8, x9
	.loc	0 1003 12                       ; ggml/src/ggml-cpu/ggml-cpu.c:1003:12
	str	x8, [sp, #24]
	.loc	0 1004 13 is_stmt 1             ; ggml/src/ggml-cpu/ggml-cpu.c:1004:13
	ldur	x8, [x29, #-8]
	.loc	0 1004 21 is_stmt 0             ; ggml/src/ggml-cpu/ggml-cpu.c:1004:21
	ldr	w8, [x8]
	str	w8, [sp, #16]                   ; 4-byte Folded Spill
	.loc	0 1004 5                        ; ggml/src/ggml-cpu/ggml-cpu.c:1004:5
	cbz	w8, LBB21_11
	b	LBB21_1
LBB21_1:
	.loc	0 0 5                           ; ggml/src/ggml-cpu/ggml-cpu.c:0:5
	ldr	w8, [sp, #16]                   ; 4-byte Folded Reload
	.loc	0 1004 5                        ; ggml/src/ggml-cpu/ggml-cpu.c:1004:5
	subs	w8, w8, #1
	b.eq	LBB21_9
	b	LBB21_2
LBB21_2:
	.loc	0 0 5                           ; ggml/src/ggml-cpu/ggml-cpu.c:0:5
	ldr	w8, [sp, #16]                   ; 4-byte Folded Reload
	.loc	0 1004 5                        ; ggml/src/ggml-cpu/ggml-cpu.c:1004:5
	subs	w8, w8, #24
	b.eq	LBB21_6
	b	LBB21_3
LBB21_3:
	.loc	0 0 5                           ; ggml/src/ggml-cpu/ggml-cpu.c:0:5
	ldr	w8, [sp, #16]                   ; 4-byte Folded Reload
	.loc	0 1004 5                        ; ggml/src/ggml-cpu/ggml-cpu.c:1004:5
	subs	w8, w8, #25
	b.eq	LBB21_7
	b	LBB21_4
LBB21_4:
	.loc	0 0 5                           ; ggml/src/ggml-cpu/ggml-cpu.c:0:5
	ldr	w8, [sp, #16]                   ; 4-byte Folded Reload
	.loc	0 1004 5                        ; ggml/src/ggml-cpu/ggml-cpu.c:1004:5
	subs	w8, w8, #26
	b.eq	LBB21_8
	b	LBB21_5
LBB21_5:
	.loc	0 0 5                           ; ggml/src/ggml-cpu/ggml-cpu.c:0:5
	ldr	w8, [sp, #16]                   ; 4-byte Folded Reload
	.loc	0 1004 5                        ; ggml/src/ggml-cpu/ggml-cpu.c:1004:5
	subs	w8, w8, #30
	b.eq	LBB21_10
	b	LBB21_12
LBB21_6:
Ltmp236:
	.loc	0 1007 41 is_stmt 1             ; ggml/src/ggml-cpu/ggml-cpu.c:1007:41
	ldur	w8, [x29, #-28]
	.loc	0 1007 29 is_stmt 0             ; ggml/src/ggml-cpu/ggml-cpu.c:1007:29
	ldr	x9, [sp, #24]
	.loc	0 1007 39                       ; ggml/src/ggml-cpu/ggml-cpu.c:1007:39
	strb	w8, [x9]
Ltmp237:
	.loc	0 1008 15 is_stmt 1             ; ggml/src/ggml-cpu/ggml-cpu.c:1008:15
	b	LBB21_13
LBB21_7:
Ltmp238:
	.loc	0 1011 42                       ; ggml/src/ggml-cpu/ggml-cpu.c:1011:42
	ldur	w8, [x29, #-28]
	.loc	0 1011 30 is_stmt 0             ; ggml/src/ggml-cpu/ggml-cpu.c:1011:30
	ldr	x9, [sp, #24]
	.loc	0 1011 40                       ; ggml/src/ggml-cpu/ggml-cpu.c:1011:40
	strh	w8, [x9]
Ltmp239:
	.loc	0 1012 15 is_stmt 1             ; ggml/src/ggml-cpu/ggml-cpu.c:1012:15
	b	LBB21_13
LBB21_8:
Ltmp240:
	.loc	0 1015 42                       ; ggml/src/ggml-cpu/ggml-cpu.c:1015:42
	ldur	w8, [x29, #-28]
	.loc	0 1015 30 is_stmt 0             ; ggml/src/ggml-cpu/ggml-cpu.c:1015:30
	ldr	x9, [sp, #24]
	.loc	0 1015 40                       ; ggml/src/ggml-cpu/ggml-cpu.c:1015:40
	str	w8, [x9]
Ltmp241:
	.loc	0 1016 15 is_stmt 1             ; ggml/src/ggml-cpu/ggml-cpu.c:1016:15
	b	LBB21_13
LBB21_9:
Ltmp242:
	.loc	0 1019 46                       ; ggml/src/ggml-cpu/ggml-cpu.c:1019:46
	ldur	s0, [x29, #-28]
	scvtf	s0, s0
	bl	_ggml_compute_fp32_to_fp16
	.loc	0 1019 34 is_stmt 0             ; ggml/src/ggml-cpu/ggml-cpu.c:1019:34
	ldr	x8, [sp, #24]
	.loc	0 1019 44                       ; ggml/src/ggml-cpu/ggml-cpu.c:1019:44
	strh	w0, [x8]
Ltmp243:
	.loc	0 1020 15 is_stmt 1             ; ggml/src/ggml-cpu/ggml-cpu.c:1020:15
	b	LBB21_13
LBB21_10:
Ltmp244:
	.loc	0 1023 34                       ; ggml/src/ggml-cpu/ggml-cpu.c:1023:34
	ldr	x8, [sp, #24]
	str	x8, [sp, #8]                    ; 8-byte Folded Spill
	.loc	0 1023 46 is_stmt 0             ; ggml/src/ggml-cpu/ggml-cpu.c:1023:46
	ldur	s0, [x29, #-28]
	scvtf	s0, s0
	bl	_ggml_compute_fp32_to_bf16
	ldr	x9, [sp, #8]                    ; 8-byte Folded Reload
	strh	w0, [sp, #22]
	ldrh	w8, [sp, #22]
	strh	w8, [x9]
Ltmp245:
	.loc	0 1024 15 is_stmt 1             ; ggml/src/ggml-cpu/ggml-cpu.c:1024:15
	b	LBB21_13
LBB21_11:
Ltmp246:
	.loc	0 1027 40                       ; ggml/src/ggml-cpu/ggml-cpu.c:1027:40
	ldur	s0, [x29, #-28]
	scvtf	s0, s0
	.loc	0 1027 28 is_stmt 0             ; ggml/src/ggml-cpu/ggml-cpu.c:1027:28
	ldr	x8, [sp, #24]
	.loc	0 1027 38                       ; ggml/src/ggml-cpu/ggml-cpu.c:1027:38
	str	s0, [x8]
Ltmp247:
	.loc	0 1028 15 is_stmt 1             ; ggml/src/ggml-cpu/ggml-cpu.c:1028:15
	b	LBB21_13
LBB21_12:
Ltmp248:
	.loc	0 1031 17                       ; ggml/src/ggml-cpu/ggml-cpu.c:1031:17
	adrp	x0, l_.str.1@PAGE
	add	x0, x0, l_.str.1@PAGEOFF
	mov	w1, #1031                       ; =0x407
	adrp	x2, l_.str.4@PAGE
	add	x2, x2, l_.str.4@PAGEOFF
	bl	_ggml_abort
Ltmp249:
LBB21_13:
	.loc	0 1034 1 epilogue_begin         ; ggml/src/ggml-cpu/ggml-cpu.c:1034:1
	ldp	x29, x30, [sp, #64]             ; 16-byte Folded Reload
	add	sp, sp, #80
	ret
Ltmp250:
Lfunc_end21:
	.cfi_endproc
                                        ; -- End function
	.globl	_ggml_get_f32_1d                ; -- Begin function ggml_get_f32_1d
	.p2align	2
_ggml_get_f32_1d:                       ; @ggml_get_f32_1d
Lfunc_begin22:
	.loc	0 1036 0                        ; ggml/src/ggml-cpu/ggml-cpu.c:1036:0
	.cfi_startproc
; %bb.0:
	sub	sp, sp, #96
	stp	x29, x30, [sp, #80]             ; 16-byte Folded Spill
	add	x29, sp, #80
	.cfi_def_cfa w29, 16
	.cfi_offset w30, -8
	.cfi_offset w29, -16
	adrp	x8, ___stack_chk_guard@GOTPAGE
	ldr	x8, [x8, ___stack_chk_guard@GOTPAGEOFF]
	ldr	x8, [x8]
	stur	x8, [x29, #-8]
	str	x0, [sp, #16]
	str	w1, [sp, #12]
Ltmp251:
	.loc	0 1037 29 prologue_end          ; ggml/src/ggml-cpu/ggml-cpu.c:1037:29
	ldr	x0, [sp, #16]
	.loc	0 1037 10 is_stmt 0             ; ggml/src/ggml-cpu/ggml-cpu.c:1037:10
	bl	_ggml_is_contiguous
Ltmp252:
	.loc	0 1037 9                        ; ggml/src/ggml-cpu/ggml-cpu.c:1037:9
	tbnz	w0, #0, LBB22_2
	b	LBB22_1
LBB22_1:
Ltmp253:
	.loc	0 1038 17 is_stmt 1             ; ggml/src/ggml-cpu/ggml-cpu.c:1038:17
	movi.2d	v0, #0000000000000000
	add	x2, sp, #32
	str	q0, [sp, #32]
	str	q0, [sp, #48]
	.loc	0 1039 28                       ; ggml/src/ggml-cpu/ggml-cpu.c:1039:28
	ldr	x0, [sp, #16]
	.loc	0 1039 36 is_stmt 0             ; ggml/src/ggml-cpu/ggml-cpu.c:1039:36
	ldrsw	x1, [sp, #12]
	.loc	0 1039 48                       ; ggml/src/ggml-cpu/ggml-cpu.c:1039:48
	add	x3, x2, #8
	.loc	0 1039 56                       ; ggml/src/ggml-cpu/ggml-cpu.c:1039:56
	add	x4, x2, #16
	.loc	0 1039 64                       ; ggml/src/ggml-cpu/ggml-cpu.c:1039:64
	add	x5, x2, #24
	.loc	0 1039 9                        ; ggml/src/ggml-cpu/ggml-cpu.c:1039:9
	bl	_ggml_unravel_index
	.loc	0 1040 32 is_stmt 1             ; ggml/src/ggml-cpu/ggml-cpu.c:1040:32
	ldr	x0, [sp, #16]
	.loc	0 1040 40 is_stmt 0             ; ggml/src/ggml-cpu/ggml-cpu.c:1040:40
	ldr	x8, [sp, #32]
	mov	x1, x8
	.loc	0 1040 47                       ; ggml/src/ggml-cpu/ggml-cpu.c:1040:47
	ldr	x8, [sp, #40]
	mov	x2, x8
	.loc	0 1040 54                       ; ggml/src/ggml-cpu/ggml-cpu.c:1040:54
	ldr	x8, [sp, #48]
	mov	x3, x8
	.loc	0 1040 61                       ; ggml/src/ggml-cpu/ggml-cpu.c:1040:61
	ldr	x8, [sp, #56]
	mov	x4, x8
	.loc	0 1040 16                       ; ggml/src/ggml-cpu/ggml-cpu.c:1040:16
	bl	_ggml_get_f32_nd
	.loc	0 1040 9                        ; ggml/src/ggml-cpu/ggml-cpu.c:1040:9
	str	s0, [sp, #28]
	b	LBB22_15
Ltmp254:
LBB22_2:
	.loc	0 1042 13 is_stmt 1             ; ggml/src/ggml-cpu/ggml-cpu.c:1042:13
	ldr	x8, [sp, #16]
	.loc	0 1042 21 is_stmt 0             ; ggml/src/ggml-cpu/ggml-cpu.c:1042:21
	ldr	w8, [x8]
	str	w8, [sp, #8]                    ; 4-byte Folded Spill
	.loc	0 1042 5                        ; ggml/src/ggml-cpu/ggml-cpu.c:1042:5
	cbz	w8, LBB22_13
	b	LBB22_3
LBB22_3:
	.loc	0 0 5                           ; ggml/src/ggml-cpu/ggml-cpu.c:0:5
	ldr	w8, [sp, #8]                    ; 4-byte Folded Reload
	.loc	0 1042 5                        ; ggml/src/ggml-cpu/ggml-cpu.c:1042:5
	subs	w8, w8, #1
	b.eq	LBB22_11
	b	LBB22_4
LBB22_4:
	.loc	0 0 5                           ; ggml/src/ggml-cpu/ggml-cpu.c:0:5
	ldr	w8, [sp, #8]                    ; 4-byte Folded Reload
	.loc	0 1042 5                        ; ggml/src/ggml-cpu/ggml-cpu.c:1042:5
	subs	w8, w8, #24
	b.eq	LBB22_8
	b	LBB22_5
LBB22_5:
	.loc	0 0 5                           ; ggml/src/ggml-cpu/ggml-cpu.c:0:5
	ldr	w8, [sp, #8]                    ; 4-byte Folded Reload
	.loc	0 1042 5                        ; ggml/src/ggml-cpu/ggml-cpu.c:1042:5
	subs	w8, w8, #25
	b.eq	LBB22_9
	b	LBB22_6
LBB22_6:
	.loc	0 0 5                           ; ggml/src/ggml-cpu/ggml-cpu.c:0:5
	ldr	w8, [sp, #8]                    ; 4-byte Folded Reload
	.loc	0 1042 5                        ; ggml/src/ggml-cpu/ggml-cpu.c:1042:5
	subs	w8, w8, #26
	b.eq	LBB22_10
	b	LBB22_7
LBB22_7:
	.loc	0 0 5                           ; ggml/src/ggml-cpu/ggml-cpu.c:0:5
	ldr	w8, [sp, #8]                    ; 4-byte Folded Reload
	.loc	0 1042 5                        ; ggml/src/ggml-cpu/ggml-cpu.c:1042:5
	subs	w8, w8, #30
	b.eq	LBB22_12
	b	LBB22_14
LBB22_8:
Ltmp255:
	.loc	0 1045 36 is_stmt 1             ; ggml/src/ggml-cpu/ggml-cpu.c:1045:36
	ldr	x8, [sp, #16]
	.loc	0 1045 44 is_stmt 0             ; ggml/src/ggml-cpu/ggml-cpu.c:1045:44
	ldr	x8, [x8, #248]
	.loc	0 1045 51                       ; ggml/src/ggml-cpu/ggml-cpu.c:1045:51
	ldrsw	x9, [sp, #12]
	.loc	0 1045 24                       ; ggml/src/ggml-cpu/ggml-cpu.c:1045:24
	add	x8, x8, x9
	ldrb	w8, [x8]
	sxtb	w8, w8
	scvtf	s0, w8
	.loc	0 1045 17                       ; ggml/src/ggml-cpu/ggml-cpu.c:1045:17
	str	s0, [sp, #28]
	b	LBB22_15
Ltmp256:
LBB22_9:
	.loc	0 1049 37 is_stmt 1             ; ggml/src/ggml-cpu/ggml-cpu.c:1049:37
	ldr	x8, [sp, #16]
	.loc	0 1049 45 is_stmt 0             ; ggml/src/ggml-cpu/ggml-cpu.c:1049:45
	ldr	x8, [x8, #248]
	.loc	0 1049 52                       ; ggml/src/ggml-cpu/ggml-cpu.c:1049:52
	ldrsw	x9, [sp, #12]
	.loc	0 1049 24                       ; ggml/src/ggml-cpu/ggml-cpu.c:1049:24
	add	x8, x8, x9, lsl #1
	ldrh	w8, [x8]
	sxth	w8, w8
	scvtf	s0, w8
	.loc	0 1049 17                       ; ggml/src/ggml-cpu/ggml-cpu.c:1049:17
	str	s0, [sp, #28]
	b	LBB22_15
Ltmp257:
LBB22_10:
	.loc	0 1053 37 is_stmt 1             ; ggml/src/ggml-cpu/ggml-cpu.c:1053:37
	ldr	x8, [sp, #16]
	.loc	0 1053 45 is_stmt 0             ; ggml/src/ggml-cpu/ggml-cpu.c:1053:45
	ldr	x8, [x8, #248]
	.loc	0 1053 52                       ; ggml/src/ggml-cpu/ggml-cpu.c:1053:52
	ldrsw	x9, [sp, #12]
	.loc	0 1053 24                       ; ggml/src/ggml-cpu/ggml-cpu.c:1053:24
	ldr	s0, [x8, x9, lsl #2]
	scvtf	s0, s0
	.loc	0 1053 17                       ; ggml/src/ggml-cpu/ggml-cpu.c:1053:17
	str	s0, [sp, #28]
	b	LBB22_15
Ltmp258:
LBB22_11:
	.loc	0 1057 24 is_stmt 1             ; ggml/src/ggml-cpu/ggml-cpu.c:1057:24
	ldr	x8, [sp, #16]
	ldr	x8, [x8, #248]
	ldrsw	x9, [sp, #12]
	ldrh	w0, [x8, x9, lsl #1]
	bl	_ggml_compute_fp16_to_fp32
	.loc	0 1057 17 is_stmt 0             ; ggml/src/ggml-cpu/ggml-cpu.c:1057:17
	str	s0, [sp, #28]
	b	LBB22_15
Ltmp259:
LBB22_12:
	.loc	0 1061 24 is_stmt 1             ; ggml/src/ggml-cpu/ggml-cpu.c:1061:24
	ldr	x8, [sp, #16]
	ldr	x8, [x8, #248]
	ldrsw	x9, [sp, #12]
	ldrh	w8, [x8, x9, lsl #1]
	mov	x0, x8
	bl	_ggml_compute_bf16_to_fp32
	.loc	0 1061 17 is_stmt 0             ; ggml/src/ggml-cpu/ggml-cpu.c:1061:17
	str	s0, [sp, #28]
	b	LBB22_15
Ltmp260:
LBB22_13:
	.loc	0 1065 35 is_stmt 1             ; ggml/src/ggml-cpu/ggml-cpu.c:1065:35
	ldr	x8, [sp, #16]
	.loc	0 1065 43 is_stmt 0             ; ggml/src/ggml-cpu/ggml-cpu.c:1065:43
	ldr	x8, [x8, #248]
	.loc	0 1065 50                       ; ggml/src/ggml-cpu/ggml-cpu.c:1065:50
	ldrsw	x9, [sp, #12]
	.loc	0 1065 24                       ; ggml/src/ggml-cpu/ggml-cpu.c:1065:24
	ldr	s0, [x8, x9, lsl #2]
	.loc	0 1065 17                       ; ggml/src/ggml-cpu/ggml-cpu.c:1065:17
	str	s0, [sp, #28]
	b	LBB22_15
Ltmp261:
LBB22_14:
	.loc	0 1069 17 is_stmt 1             ; ggml/src/ggml-cpu/ggml-cpu.c:1069:17
	adrp	x0, l_.str.1@PAGE
	add	x0, x0, l_.str.1@PAGEOFF
	mov	w1, #1069                       ; =0x42d
	adrp	x2, l_.str.4@PAGE
	add	x2, x2, l_.str.4@PAGEOFF
	bl	_ggml_abort
Ltmp262:
LBB22_15:
	.loc	0 1072 1                        ; ggml/src/ggml-cpu/ggml-cpu.c:1072:1
	ldr	s0, [sp, #28]
	str	s0, [sp, #4]                    ; 4-byte Folded Spill
	ldur	x9, [x29, #-8]
	adrp	x8, ___stack_chk_guard@GOTPAGE
	ldr	x8, [x8, ___stack_chk_guard@GOTPAGEOFF]
	ldr	x8, [x8]
	subs	x8, x8, x9
	b.eq	LBB22_17
	b	LBB22_16
LBB22_16:
	bl	___stack_chk_fail
LBB22_17:
	.loc	0 0 1 is_stmt 0                 ; ggml/src/ggml-cpu/ggml-cpu.c:0:1
	ldr	s0, [sp, #4]                    ; 4-byte Folded Reload
	.loc	0 1072 1 epilogue_begin         ; ggml/src/ggml-cpu/ggml-cpu.c:1072:1
	ldp	x29, x30, [sp, #80]             ; 16-byte Folded Reload
	add	sp, sp, #96
	ret
Ltmp263:
Lfunc_end22:
	.cfi_endproc
                                        ; -- End function
	.globl	_ggml_get_f32_nd                ; -- Begin function ggml_get_f32_nd
	.p2align	2
_ggml_get_f32_nd:                       ; @ggml_get_f32_nd
Lfunc_begin23:
	.loc	0 1113 0 is_stmt 1              ; ggml/src/ggml-cpu/ggml-cpu.c:1113:0
	.cfi_startproc
; %bb.0:
	sub	sp, sp, #64
	stp	x29, x30, [sp, #48]             ; 16-byte Folded Spill
	add	x29, sp, #48
	.cfi_def_cfa w29, 16
	.cfi_offset w30, -8
	.cfi_offset w29, -16
	stur	x0, [x29, #-16]
	stur	w1, [x29, #-20]
	str	w2, [sp, #24]
	str	w3, [sp, #20]
	str	w4, [sp, #16]
Ltmp264:
	.loc	0 1114 30 prologue_end          ; ggml/src/ggml-cpu/ggml-cpu.c:1114:30
	ldur	x8, [x29, #-16]
	.loc	0 1114 38 is_stmt 0             ; ggml/src/ggml-cpu/ggml-cpu.c:1114:38
	ldr	x8, [x8, #248]
	.loc	0 1114 45                       ; ggml/src/ggml-cpu/ggml-cpu.c:1114:45
	ldursw	x9, [x29, #-20]
	.loc	0 1114 48                       ; ggml/src/ggml-cpu/ggml-cpu.c:1114:48
	ldur	x10, [x29, #-16]
	ldr	x10, [x10, #48]
	.loc	0 1114 47                       ; ggml/src/ggml-cpu/ggml-cpu.c:1114:47
	mul	x12, x9, x10
	.loc	0 1114 64                       ; ggml/src/ggml-cpu/ggml-cpu.c:1114:64
	ldrsw	x9, [sp, #24]
	.loc	0 1114 67                       ; ggml/src/ggml-cpu/ggml-cpu.c:1114:67
	ldur	x10, [x29, #-16]
	ldr	x10, [x10, #56]
	.loc	0 1114 66                       ; ggml/src/ggml-cpu/ggml-cpu.c:1114:66
	mul	x11, x9, x10
	.loc	0 1114 83                       ; ggml/src/ggml-cpu/ggml-cpu.c:1114:83
	ldrsw	x9, [sp, #20]
	.loc	0 1114 86                       ; ggml/src/ggml-cpu/ggml-cpu.c:1114:86
	ldur	x10, [x29, #-16]
	ldr	x10, [x10, #64]
	.loc	0 1114 85                       ; ggml/src/ggml-cpu/ggml-cpu.c:1114:85
	mul	x10, x9, x10
	.loc	0 1114 102                      ; ggml/src/ggml-cpu/ggml-cpu.c:1114:102
	ldrsw	x9, [sp, #16]
	.loc	0 1114 105                      ; ggml/src/ggml-cpu/ggml-cpu.c:1114:105
	ldur	x13, [x29, #-16]
	ldr	x13, [x13, #72]
	.loc	0 1114 104                      ; ggml/src/ggml-cpu/ggml-cpu.c:1114:104
	mul	x9, x9, x13
	.loc	0 1114 43                       ; ggml/src/ggml-cpu/ggml-cpu.c:1114:43
	add	x8, x8, x12
	.loc	0 1114 62                       ; ggml/src/ggml-cpu/ggml-cpu.c:1114:62
	add	x8, x8, x11
	.loc	0 1114 81                       ; ggml/src/ggml-cpu/ggml-cpu.c:1114:81
	add	x8, x8, x10
	.loc	0 1114 100                      ; ggml/src/ggml-cpu/ggml-cpu.c:1114:100
	add	x8, x8, x9
	.loc	0 1114 12                       ; ggml/src/ggml-cpu/ggml-cpu.c:1114:12
	str	x8, [sp, #8]
	.loc	0 1115 13 is_stmt 1             ; ggml/src/ggml-cpu/ggml-cpu.c:1115:13
	ldur	x8, [x29, #-16]
	.loc	0 1115 21 is_stmt 0             ; ggml/src/ggml-cpu/ggml-cpu.c:1115:21
	ldr	w8, [x8]
	str	w8, [sp, #4]                    ; 4-byte Folded Spill
	.loc	0 1115 5                        ; ggml/src/ggml-cpu/ggml-cpu.c:1115:5
	cbz	w8, LBB23_11
	b	LBB23_1
LBB23_1:
	.loc	0 0 5                           ; ggml/src/ggml-cpu/ggml-cpu.c:0:5
	ldr	w8, [sp, #4]                    ; 4-byte Folded Reload
	.loc	0 1115 5                        ; ggml/src/ggml-cpu/ggml-cpu.c:1115:5
	subs	w8, w8, #1
	b.eq	LBB23_9
	b	LBB23_2
LBB23_2:
	.loc	0 0 5                           ; ggml/src/ggml-cpu/ggml-cpu.c:0:5
	ldr	w8, [sp, #4]                    ; 4-byte Folded Reload
	.loc	0 1115 5                        ; ggml/src/ggml-cpu/ggml-cpu.c:1115:5
	subs	w8, w8, #24
	b.eq	LBB23_6
	b	LBB23_3
LBB23_3:
	.loc	0 0 5                           ; ggml/src/ggml-cpu/ggml-cpu.c:0:5
	ldr	w8, [sp, #4]                    ; 4-byte Folded Reload
	.loc	0 1115 5                        ; ggml/src/ggml-cpu/ggml-cpu.c:1115:5
	subs	w8, w8, #25
	b.eq	LBB23_7
	b	LBB23_4
LBB23_4:
	.loc	0 0 5                           ; ggml/src/ggml-cpu/ggml-cpu.c:0:5
	ldr	w8, [sp, #4]                    ; 4-byte Folded Reload
	.loc	0 1115 5                        ; ggml/src/ggml-cpu/ggml-cpu.c:1115:5
	subs	w8, w8, #26
	b.eq	LBB23_8
	b	LBB23_5
LBB23_5:
	.loc	0 0 5                           ; ggml/src/ggml-cpu/ggml-cpu.c:0:5
	ldr	w8, [sp, #4]                    ; 4-byte Folded Reload
	.loc	0 1115 5                        ; ggml/src/ggml-cpu/ggml-cpu.c:1115:5
	subs	w8, w8, #30
	b.eq	LBB23_10
	b	LBB23_12
LBB23_6:
Ltmp265:
	.loc	0 1117 32 is_stmt 1             ; ggml/src/ggml-cpu/ggml-cpu.c:1117:32
	ldr	x8, [sp, #8]
	.loc	0 1117 20 is_stmt 0             ; ggml/src/ggml-cpu/ggml-cpu.c:1117:20
	ldrb	w8, [x8]
	sxtb	w8, w8
	scvtf	s0, w8
	.loc	0 1117 13                       ; ggml/src/ggml-cpu/ggml-cpu.c:1117:13
	stur	s0, [x29, #-4]
	b	LBB23_13
LBB23_7:
	.loc	0 1119 33 is_stmt 1             ; ggml/src/ggml-cpu/ggml-cpu.c:1119:33
	ldr	x8, [sp, #8]
	.loc	0 1119 20 is_stmt 0             ; ggml/src/ggml-cpu/ggml-cpu.c:1119:20
	ldrh	w8, [x8]
	sxth	w8, w8
	scvtf	s0, w8
	.loc	0 1119 13                       ; ggml/src/ggml-cpu/ggml-cpu.c:1119:13
	stur	s0, [x29, #-4]
	b	LBB23_13
LBB23_8:
	.loc	0 1121 33 is_stmt 1             ; ggml/src/ggml-cpu/ggml-cpu.c:1121:33
	ldr	x8, [sp, #8]
	.loc	0 1121 20 is_stmt 0             ; ggml/src/ggml-cpu/ggml-cpu.c:1121:20
	ldr	s0, [x8]
	scvtf	s0, s0
	.loc	0 1121 13                       ; ggml/src/ggml-cpu/ggml-cpu.c:1121:13
	stur	s0, [x29, #-4]
	b	LBB23_13
LBB23_9:
	.loc	0 1123 20 is_stmt 1             ; ggml/src/ggml-cpu/ggml-cpu.c:1123:20
	ldr	x8, [sp, #8]
	ldrh	w0, [x8]
	bl	_ggml_compute_fp16_to_fp32
	.loc	0 1123 13 is_stmt 0             ; ggml/src/ggml-cpu/ggml-cpu.c:1123:13
	stur	s0, [x29, #-4]
	b	LBB23_13
LBB23_10:
	.loc	0 1125 20 is_stmt 1             ; ggml/src/ggml-cpu/ggml-cpu.c:1125:20
	ldr	x8, [sp, #8]
	ldrh	w8, [x8]
	mov	x0, x8
	bl	_ggml_compute_bf16_to_fp32
	.loc	0 1125 13 is_stmt 0             ; ggml/src/ggml-cpu/ggml-cpu.c:1125:13
	stur	s0, [x29, #-4]
	b	LBB23_13
LBB23_11:
	.loc	0 1127 31 is_stmt 1             ; ggml/src/ggml-cpu/ggml-cpu.c:1127:31
	ldr	x8, [sp, #8]
	.loc	0 1127 20 is_stmt 0             ; ggml/src/ggml-cpu/ggml-cpu.c:1127:20
	ldr	s0, [x8]
	.loc	0 1127 13                       ; ggml/src/ggml-cpu/ggml-cpu.c:1127:13
	stur	s0, [x29, #-4]
	b	LBB23_13
LBB23_12:
	.loc	0 1129 13 is_stmt 1             ; ggml/src/ggml-cpu/ggml-cpu.c:1129:13
	adrp	x0, l_.str.1@PAGE
	add	x0, x0, l_.str.1@PAGEOFF
	mov	w1, #1129                       ; =0x469
	adrp	x2, l_.str.4@PAGE
	add	x2, x2, l_.str.4@PAGEOFF
	bl	_ggml_abort
Ltmp266:
LBB23_13:
	.loc	0 1131 1                        ; ggml/src/ggml-cpu/ggml-cpu.c:1131:1
	ldur	s0, [x29, #-4]
	.loc	0 1131 1 epilogue_begin is_stmt 0 ; ggml/src/ggml-cpu/ggml-cpu.c:1131:1
	ldp	x29, x30, [sp, #48]             ; 16-byte Folded Reload
	add	sp, sp, #64
	ret
Ltmp267:
Lfunc_end23:
	.cfi_endproc
                                        ; -- End function
	.globl	_ggml_set_f32_1d                ; -- Begin function ggml_set_f32_1d
	.p2align	2
_ggml_set_f32_1d:                       ; @ggml_set_f32_1d
Lfunc_begin24:
	.loc	0 1074 0 is_stmt 1              ; ggml/src/ggml-cpu/ggml-cpu.c:1074:0
	.cfi_startproc
; %bb.0:
	sub	sp, sp, #96
	stp	x29, x30, [sp, #80]             ; 16-byte Folded Spill
	add	x29, sp, #80
	.cfi_def_cfa w29, 16
	.cfi_offset w30, -8
	.cfi_offset w29, -16
	adrp	x8, ___stack_chk_guard@GOTPAGE
	ldr	x8, [x8, ___stack_chk_guard@GOTPAGEOFF]
	ldr	x8, [x8]
	stur	x8, [x29, #-8]
	str	x0, [sp, #24]
	str	w1, [sp, #20]
	str	s0, [sp, #16]
Ltmp268:
	.loc	0 1075 29 prologue_end          ; ggml/src/ggml-cpu/ggml-cpu.c:1075:29
	ldr	x0, [sp, #24]
	.loc	0 1075 10 is_stmt 0             ; ggml/src/ggml-cpu/ggml-cpu.c:1075:10
	bl	_ggml_is_contiguous
Ltmp269:
	.loc	0 1075 9                        ; ggml/src/ggml-cpu/ggml-cpu.c:1075:9
	tbnz	w0, #0, LBB24_2
	b	LBB24_1
LBB24_1:
Ltmp270:
	.loc	0 1076 17 is_stmt 1             ; ggml/src/ggml-cpu/ggml-cpu.c:1076:17
	movi.2d	v0, #0000000000000000
	add	x2, sp, #32
	str	q0, [sp, #32]
	str	q0, [sp, #48]
	.loc	0 1077 28                       ; ggml/src/ggml-cpu/ggml-cpu.c:1077:28
	ldr	x0, [sp, #24]
	.loc	0 1077 36 is_stmt 0             ; ggml/src/ggml-cpu/ggml-cpu.c:1077:36
	ldrsw	x1, [sp, #20]
	.loc	0 1077 48                       ; ggml/src/ggml-cpu/ggml-cpu.c:1077:48
	add	x3, x2, #8
	.loc	0 1077 56                       ; ggml/src/ggml-cpu/ggml-cpu.c:1077:56
	add	x4, x2, #16
	.loc	0 1077 64                       ; ggml/src/ggml-cpu/ggml-cpu.c:1077:64
	add	x5, x2, #24
	.loc	0 1077 9                        ; ggml/src/ggml-cpu/ggml-cpu.c:1077:9
	bl	_ggml_unravel_index
	.loc	0 1078 25 is_stmt 1             ; ggml/src/ggml-cpu/ggml-cpu.c:1078:25
	ldr	x0, [sp, #24]
	.loc	0 1078 33 is_stmt 0             ; ggml/src/ggml-cpu/ggml-cpu.c:1078:33
	ldr	x8, [sp, #32]
	mov	x1, x8
	.loc	0 1078 40                       ; ggml/src/ggml-cpu/ggml-cpu.c:1078:40
	ldr	x8, [sp, #40]
	mov	x2, x8
	.loc	0 1078 47                       ; ggml/src/ggml-cpu/ggml-cpu.c:1078:47
	ldr	x8, [sp, #48]
	mov	x3, x8
	.loc	0 1078 54                       ; ggml/src/ggml-cpu/ggml-cpu.c:1078:54
	ldr	x8, [sp, #56]
	mov	x4, x8
	.loc	0 1078 61                       ; ggml/src/ggml-cpu/ggml-cpu.c:1078:61
	ldr	s0, [sp, #16]
	.loc	0 1078 9                        ; ggml/src/ggml-cpu/ggml-cpu.c:1078:9
	bl	_ggml_set_f32_nd
	.loc	0 1079 9 is_stmt 1              ; ggml/src/ggml-cpu/ggml-cpu.c:1079:9
	b	LBB24_15
Ltmp271:
LBB24_2:
	.loc	0 1081 13                       ; ggml/src/ggml-cpu/ggml-cpu.c:1081:13
	ldr	x8, [sp, #24]
	.loc	0 1081 21 is_stmt 0             ; ggml/src/ggml-cpu/ggml-cpu.c:1081:21
	ldr	w8, [x8]
	str	w8, [sp, #8]                    ; 4-byte Folded Spill
	.loc	0 1081 5                        ; ggml/src/ggml-cpu/ggml-cpu.c:1081:5
	cbz	w8, LBB24_13
	b	LBB24_3
LBB24_3:
	.loc	0 0 5                           ; ggml/src/ggml-cpu/ggml-cpu.c:0:5
	ldr	w8, [sp, #8]                    ; 4-byte Folded Reload
	.loc	0 1081 5                        ; ggml/src/ggml-cpu/ggml-cpu.c:1081:5
	subs	w8, w8, #1
	b.eq	LBB24_11
	b	LBB24_4
LBB24_4:
	.loc	0 0 5                           ; ggml/src/ggml-cpu/ggml-cpu.c:0:5
	ldr	w8, [sp, #8]                    ; 4-byte Folded Reload
	.loc	0 1081 5                        ; ggml/src/ggml-cpu/ggml-cpu.c:1081:5
	subs	w8, w8, #24
	b.eq	LBB24_8
	b	LBB24_5
LBB24_5:
	.loc	0 0 5                           ; ggml/src/ggml-cpu/ggml-cpu.c:0:5
	ldr	w8, [sp, #8]                    ; 4-byte Folded Reload
	.loc	0 1081 5                        ; ggml/src/ggml-cpu/ggml-cpu.c:1081:5
	subs	w8, w8, #25
	b.eq	LBB24_9
	b	LBB24_6
LBB24_6:
	.loc	0 0 5                           ; ggml/src/ggml-cpu/ggml-cpu.c:0:5
	ldr	w8, [sp, #8]                    ; 4-byte Folded Reload
	.loc	0 1081 5                        ; ggml/src/ggml-cpu/ggml-cpu.c:1081:5
	subs	w8, w8, #26
	b.eq	LBB24_10
	b	LBB24_7
LBB24_7:
	.loc	0 0 5                           ; ggml/src/ggml-cpu/ggml-cpu.c:0:5
	ldr	w8, [sp, #8]                    ; 4-byte Folded Reload
	.loc	0 1081 5                        ; ggml/src/ggml-cpu/ggml-cpu.c:1081:5
	subs	w8, w8, #30
	b.eq	LBB24_12
	b	LBB24_14
LBB24_8:
Ltmp272:
	.loc	0 1084 49 is_stmt 1             ; ggml/src/ggml-cpu/ggml-cpu.c:1084:49
	ldr	s0, [sp, #16]
	fcvtzs	w8, s0
	.loc	0 1084 29 is_stmt 0             ; ggml/src/ggml-cpu/ggml-cpu.c:1084:29
	ldr	x9, [sp, #24]
	.loc	0 1084 37                       ; ggml/src/ggml-cpu/ggml-cpu.c:1084:37
	ldr	x9, [x9, #248]
	.loc	0 1084 44                       ; ggml/src/ggml-cpu/ggml-cpu.c:1084:44
	ldrsw	x10, [sp, #20]
	.loc	0 1084 47                       ; ggml/src/ggml-cpu/ggml-cpu.c:1084:47
	strb	w8, [x9, x10]
Ltmp273:
	.loc	0 1085 15 is_stmt 1             ; ggml/src/ggml-cpu/ggml-cpu.c:1085:15
	b	LBB24_15
LBB24_9:
Ltmp274:
	.loc	0 1088 50                       ; ggml/src/ggml-cpu/ggml-cpu.c:1088:50
	ldr	s0, [sp, #16]
	fcvtzs	w8, s0
	.loc	0 1088 30 is_stmt 0             ; ggml/src/ggml-cpu/ggml-cpu.c:1088:30
	ldr	x9, [sp, #24]
	.loc	0 1088 38                       ; ggml/src/ggml-cpu/ggml-cpu.c:1088:38
	ldr	x9, [x9, #248]
	.loc	0 1088 45                       ; ggml/src/ggml-cpu/ggml-cpu.c:1088:45
	ldrsw	x10, [sp, #20]
	.loc	0 1088 48                       ; ggml/src/ggml-cpu/ggml-cpu.c:1088:48
	strh	w8, [x9, x10, lsl #1]
Ltmp275:
	.loc	0 1089 15 is_stmt 1             ; ggml/src/ggml-cpu/ggml-cpu.c:1089:15
	b	LBB24_15
LBB24_10:
Ltmp276:
	.loc	0 1092 50                       ; ggml/src/ggml-cpu/ggml-cpu.c:1092:50
	ldr	s0, [sp, #16]
	fcvtzs	w8, s0
	.loc	0 1092 30 is_stmt 0             ; ggml/src/ggml-cpu/ggml-cpu.c:1092:30
	ldr	x9, [sp, #24]
	.loc	0 1092 38                       ; ggml/src/ggml-cpu/ggml-cpu.c:1092:38
	ldr	x9, [x9, #248]
	.loc	0 1092 45                       ; ggml/src/ggml-cpu/ggml-cpu.c:1092:45
	ldrsw	x10, [sp, #20]
	.loc	0 1092 48                       ; ggml/src/ggml-cpu/ggml-cpu.c:1092:48
	str	w8, [x9, x10, lsl #2]
Ltmp277:
	.loc	0 1093 15 is_stmt 1             ; ggml/src/ggml-cpu/ggml-cpu.c:1093:15
	b	LBB24_15
LBB24_11:
Ltmp278:
	.loc	0 1096 54                       ; ggml/src/ggml-cpu/ggml-cpu.c:1096:54
	ldr	s0, [sp, #16]
	bl	_ggml_compute_fp32_to_fp16
	.loc	0 1096 34 is_stmt 0             ; ggml/src/ggml-cpu/ggml-cpu.c:1096:34
	ldr	x8, [sp, #24]
	.loc	0 1096 42                       ; ggml/src/ggml-cpu/ggml-cpu.c:1096:42
	ldr	x8, [x8, #248]
	.loc	0 1096 49                       ; ggml/src/ggml-cpu/ggml-cpu.c:1096:49
	ldrsw	x9, [sp, #20]
	.loc	0 1096 52                       ; ggml/src/ggml-cpu/ggml-cpu.c:1096:52
	strh	w0, [x8, x9, lsl #1]
Ltmp279:
	.loc	0 1097 15 is_stmt 1             ; ggml/src/ggml-cpu/ggml-cpu.c:1097:15
	b	LBB24_15
LBB24_12:
Ltmp280:
	.loc	0 1100 34                       ; ggml/src/ggml-cpu/ggml-cpu.c:1100:34
	ldr	x8, [sp, #24]
	.loc	0 1100 42 is_stmt 0             ; ggml/src/ggml-cpu/ggml-cpu.c:1100:42
	ldr	x8, [x8, #248]
	.loc	0 1100 49                       ; ggml/src/ggml-cpu/ggml-cpu.c:1100:49
	ldrsw	x9, [sp, #20]
	.loc	0 1100 17                       ; ggml/src/ggml-cpu/ggml-cpu.c:1100:17
	add	x8, x8, x9, lsl #1
	str	x8, [sp]                        ; 8-byte Folded Spill
	.loc	0 1100 54                       ; ggml/src/ggml-cpu/ggml-cpu.c:1100:54
	ldr	s0, [sp, #16]
	bl	_ggml_compute_fp32_to_bf16
	ldr	x9, [sp]                        ; 8-byte Folded Reload
	strh	w0, [sp, #14]
	ldrh	w8, [sp, #14]
	strh	w8, [x9]
Ltmp281:
	.loc	0 1101 15 is_stmt 1             ; ggml/src/ggml-cpu/ggml-cpu.c:1101:15
	b	LBB24_15
LBB24_13:
Ltmp282:
	.loc	0 1104 48                       ; ggml/src/ggml-cpu/ggml-cpu.c:1104:48
	ldr	s0, [sp, #16]
	.loc	0 1104 28 is_stmt 0             ; ggml/src/ggml-cpu/ggml-cpu.c:1104:28
	ldr	x8, [sp, #24]
	.loc	0 1104 36                       ; ggml/src/ggml-cpu/ggml-cpu.c:1104:36
	ldr	x8, [x8, #248]
	.loc	0 1104 43                       ; ggml/src/ggml-cpu/ggml-cpu.c:1104:43
	ldrsw	x9, [sp, #20]
	.loc	0 1104 46                       ; ggml/src/ggml-cpu/ggml-cpu.c:1104:46
	str	s0, [x8, x9, lsl #2]
Ltmp283:
	.loc	0 1105 15 is_stmt 1             ; ggml/src/ggml-cpu/ggml-cpu.c:1105:15
	b	LBB24_15
LBB24_14:
Ltmp284:
	.loc	0 1108 17                       ; ggml/src/ggml-cpu/ggml-cpu.c:1108:17
	adrp	x0, l_.str.1@PAGE
	add	x0, x0, l_.str.1@PAGEOFF
	mov	w1, #1108                       ; =0x454
	adrp	x2, l_.str.4@PAGE
	add	x2, x2, l_.str.4@PAGEOFF
	bl	_ggml_abort
Ltmp285:
LBB24_15:
	.loc	0 1111 1                        ; ggml/src/ggml-cpu/ggml-cpu.c:1111:1
	ldur	x9, [x29, #-8]
	adrp	x8, ___stack_chk_guard@GOTPAGE
	ldr	x8, [x8, ___stack_chk_guard@GOTPAGEOFF]
	ldr	x8, [x8]
	subs	x8, x8, x9
	b.eq	LBB24_17
	b	LBB24_16
LBB24_16:
	bl	___stack_chk_fail
LBB24_17:
	.loc	0 1111 1 epilogue_begin is_stmt 0 ; ggml/src/ggml-cpu/ggml-cpu.c:1111:1
	ldp	x29, x30, [sp, #80]             ; 16-byte Folded Reload
	add	sp, sp, #96
	ret
Ltmp286:
Lfunc_end24:
	.cfi_endproc
                                        ; -- End function
	.globl	_ggml_set_f32_nd                ; -- Begin function ggml_set_f32_nd
	.p2align	2
_ggml_set_f32_nd:                       ; @ggml_set_f32_nd
Lfunc_begin25:
	.loc	0 1133 0 is_stmt 1              ; ggml/src/ggml-cpu/ggml-cpu.c:1133:0
	.cfi_startproc
; %bb.0:
	sub	sp, sp, #80
	stp	x29, x30, [sp, #64]             ; 16-byte Folded Spill
	add	x29, sp, #64
	.cfi_def_cfa w29, 16
	.cfi_offset w30, -8
	.cfi_offset w29, -16
	stur	x0, [x29, #-8]
	stur	w1, [x29, #-12]
	stur	w2, [x29, #-16]
	stur	w3, [x29, #-20]
	stur	w4, [x29, #-24]
	stur	s0, [x29, #-28]
Ltmp287:
	.loc	0 1134 30 prologue_end          ; ggml/src/ggml-cpu/ggml-cpu.c:1134:30
	ldur	x8, [x29, #-8]
	.loc	0 1134 38 is_stmt 0             ; ggml/src/ggml-cpu/ggml-cpu.c:1134:38
	ldr	x8, [x8, #248]
	.loc	0 1134 45                       ; ggml/src/ggml-cpu/ggml-cpu.c:1134:45
	ldursw	x9, [x29, #-12]
	.loc	0 1134 48                       ; ggml/src/ggml-cpu/ggml-cpu.c:1134:48
	ldur	x10, [x29, #-8]
	ldr	x10, [x10, #48]
	.loc	0 1134 47                       ; ggml/src/ggml-cpu/ggml-cpu.c:1134:47
	mul	x12, x9, x10
	.loc	0 1134 64                       ; ggml/src/ggml-cpu/ggml-cpu.c:1134:64
	ldursw	x9, [x29, #-16]
	.loc	0 1134 67                       ; ggml/src/ggml-cpu/ggml-cpu.c:1134:67
	ldur	x10, [x29, #-8]
	ldr	x10, [x10, #56]
	.loc	0 1134 66                       ; ggml/src/ggml-cpu/ggml-cpu.c:1134:66
	mul	x11, x9, x10
	.loc	0 1134 83                       ; ggml/src/ggml-cpu/ggml-cpu.c:1134:83
	ldursw	x9, [x29, #-20]
	.loc	0 1134 86                       ; ggml/src/ggml-cpu/ggml-cpu.c:1134:86
	ldur	x10, [x29, #-8]
	ldr	x10, [x10, #64]
	.loc	0 1134 85                       ; ggml/src/ggml-cpu/ggml-cpu.c:1134:85
	mul	x10, x9, x10
	.loc	0 1134 102                      ; ggml/src/ggml-cpu/ggml-cpu.c:1134:102
	ldursw	x9, [x29, #-24]
	.loc	0 1134 105                      ; ggml/src/ggml-cpu/ggml-cpu.c:1134:105
	ldur	x13, [x29, #-8]
	ldr	x13, [x13, #72]
	.loc	0 1134 104                      ; ggml/src/ggml-cpu/ggml-cpu.c:1134:104
	mul	x9, x9, x13
	.loc	0 1134 43                       ; ggml/src/ggml-cpu/ggml-cpu.c:1134:43
	add	x8, x8, x12
	.loc	0 1134 62                       ; ggml/src/ggml-cpu/ggml-cpu.c:1134:62
	add	x8, x8, x11
	.loc	0 1134 81                       ; ggml/src/ggml-cpu/ggml-cpu.c:1134:81
	add	x8, x8, x10
	.loc	0 1134 100                      ; ggml/src/ggml-cpu/ggml-cpu.c:1134:100
	add	x8, x8, x9
	.loc	0 1134 12                       ; ggml/src/ggml-cpu/ggml-cpu.c:1134:12
	str	x8, [sp, #24]
	.loc	0 1135 13 is_stmt 1             ; ggml/src/ggml-cpu/ggml-cpu.c:1135:13
	ldur	x8, [x29, #-8]
	.loc	0 1135 21 is_stmt 0             ; ggml/src/ggml-cpu/ggml-cpu.c:1135:21
	ldr	w8, [x8]
	str	w8, [sp, #16]                   ; 4-byte Folded Spill
	.loc	0 1135 5                        ; ggml/src/ggml-cpu/ggml-cpu.c:1135:5
	cbz	w8, LBB25_11
	b	LBB25_1
LBB25_1:
	.loc	0 0 5                           ; ggml/src/ggml-cpu/ggml-cpu.c:0:5
	ldr	w8, [sp, #16]                   ; 4-byte Folded Reload
	.loc	0 1135 5                        ; ggml/src/ggml-cpu/ggml-cpu.c:1135:5
	subs	w8, w8, #1
	b.eq	LBB25_9
	b	LBB25_2
LBB25_2:
	.loc	0 0 5                           ; ggml/src/ggml-cpu/ggml-cpu.c:0:5
	ldr	w8, [sp, #16]                   ; 4-byte Folded Reload
	.loc	0 1135 5                        ; ggml/src/ggml-cpu/ggml-cpu.c:1135:5
	subs	w8, w8, #24
	b.eq	LBB25_6
	b	LBB25_3
LBB25_3:
	.loc	0 0 5                           ; ggml/src/ggml-cpu/ggml-cpu.c:0:5
	ldr	w8, [sp, #16]                   ; 4-byte Folded Reload
	.loc	0 1135 5                        ; ggml/src/ggml-cpu/ggml-cpu.c:1135:5
	subs	w8, w8, #25
	b.eq	LBB25_7
	b	LBB25_4
LBB25_4:
	.loc	0 0 5                           ; ggml/src/ggml-cpu/ggml-cpu.c:0:5
	ldr	w8, [sp, #16]                   ; 4-byte Folded Reload
	.loc	0 1135 5                        ; ggml/src/ggml-cpu/ggml-cpu.c:1135:5
	subs	w8, w8, #26
	b.eq	LBB25_8
	b	LBB25_5
LBB25_5:
	.loc	0 0 5                           ; ggml/src/ggml-cpu/ggml-cpu.c:0:5
	ldr	w8, [sp, #16]                   ; 4-byte Folded Reload
	.loc	0 1135 5                        ; ggml/src/ggml-cpu/ggml-cpu.c:1135:5
	subs	w8, w8, #30
	b.eq	LBB25_10
	b	LBB25_12
LBB25_6:
Ltmp288:
	.loc	0 1138 41 is_stmt 1             ; ggml/src/ggml-cpu/ggml-cpu.c:1138:41
	ldur	s0, [x29, #-28]
	fcvtzs	w8, s0
	.loc	0 1138 29 is_stmt 0             ; ggml/src/ggml-cpu/ggml-cpu.c:1138:29
	ldr	x9, [sp, #24]
	.loc	0 1138 39                       ; ggml/src/ggml-cpu/ggml-cpu.c:1138:39
	strb	w8, [x9]
Ltmp289:
	.loc	0 1139 15 is_stmt 1             ; ggml/src/ggml-cpu/ggml-cpu.c:1139:15
	b	LBB25_13
LBB25_7:
Ltmp290:
	.loc	0 1142 42                       ; ggml/src/ggml-cpu/ggml-cpu.c:1142:42
	ldur	s0, [x29, #-28]
	fcvtzs	w8, s0
	.loc	0 1142 30 is_stmt 0             ; ggml/src/ggml-cpu/ggml-cpu.c:1142:30
	ldr	x9, [sp, #24]
	.loc	0 1142 40                       ; ggml/src/ggml-cpu/ggml-cpu.c:1142:40
	strh	w8, [x9]
Ltmp291:
	.loc	0 1143 15 is_stmt 1             ; ggml/src/ggml-cpu/ggml-cpu.c:1143:15
	b	LBB25_13
LBB25_8:
Ltmp292:
	.loc	0 1146 42                       ; ggml/src/ggml-cpu/ggml-cpu.c:1146:42
	ldur	s0, [x29, #-28]
	fcvtzs	w8, s0
	.loc	0 1146 30 is_stmt 0             ; ggml/src/ggml-cpu/ggml-cpu.c:1146:30
	ldr	x9, [sp, #24]
	.loc	0 1146 40                       ; ggml/src/ggml-cpu/ggml-cpu.c:1146:40
	str	w8, [x9]
Ltmp293:
	.loc	0 1147 15 is_stmt 1             ; ggml/src/ggml-cpu/ggml-cpu.c:1147:15
	b	LBB25_13
LBB25_9:
Ltmp294:
	.loc	0 1150 46                       ; ggml/src/ggml-cpu/ggml-cpu.c:1150:46
	ldur	s0, [x29, #-28]
	bl	_ggml_compute_fp32_to_fp16
	.loc	0 1150 34 is_stmt 0             ; ggml/src/ggml-cpu/ggml-cpu.c:1150:34
	ldr	x8, [sp, #24]
	.loc	0 1150 44                       ; ggml/src/ggml-cpu/ggml-cpu.c:1150:44
	strh	w0, [x8]
Ltmp295:
	.loc	0 1151 15 is_stmt 1             ; ggml/src/ggml-cpu/ggml-cpu.c:1151:15
	b	LBB25_13
LBB25_10:
Ltmp296:
	.loc	0 1154 34                       ; ggml/src/ggml-cpu/ggml-cpu.c:1154:34
	ldr	x8, [sp, #24]
	str	x8, [sp, #8]                    ; 8-byte Folded Spill
	.loc	0 1154 46 is_stmt 0             ; ggml/src/ggml-cpu/ggml-cpu.c:1154:46
	ldur	s0, [x29, #-28]
	bl	_ggml_compute_fp32_to_bf16
	ldr	x9, [sp, #8]                    ; 8-byte Folded Reload
	strh	w0, [sp, #22]
	ldrh	w8, [sp, #22]
	strh	w8, [x9]
Ltmp297:
	.loc	0 1155 15 is_stmt 1             ; ggml/src/ggml-cpu/ggml-cpu.c:1155:15
	b	LBB25_13
LBB25_11:
Ltmp298:
	.loc	0 1158 40                       ; ggml/src/ggml-cpu/ggml-cpu.c:1158:40
	ldur	s0, [x29, #-28]
	.loc	0 1158 28 is_stmt 0             ; ggml/src/ggml-cpu/ggml-cpu.c:1158:28
	ldr	x8, [sp, #24]
	.loc	0 1158 38                       ; ggml/src/ggml-cpu/ggml-cpu.c:1158:38
	str	s0, [x8]
Ltmp299:
	.loc	0 1159 15 is_stmt 1             ; ggml/src/ggml-cpu/ggml-cpu.c:1159:15
	b	LBB25_13
LBB25_12:
Ltmp300:
	.loc	0 1162 17                       ; ggml/src/ggml-cpu/ggml-cpu.c:1162:17
	adrp	x0, l_.str.1@PAGE
	add	x0, x0, l_.str.1@PAGEOFF
	mov	w1, #1162                       ; =0x48a
	adrp	x2, l_.str.4@PAGE
	add	x2, x2, l_.str.4@PAGEOFF
	bl	_ggml_abort
Ltmp301:
LBB25_13:
	.loc	0 1165 1 epilogue_begin         ; ggml/src/ggml-cpu/ggml-cpu.c:1165:1
	ldp	x29, x30, [sp, #64]             ; 16-byte Folded Reload
	add	sp, sp, #80
	ret
Ltmp302:
Lfunc_end25:
	.cfi_endproc
                                        ; -- End function
	.globl	_ggml_threadpool_free           ; -- Begin function ggml_threadpool_free
	.p2align	2
_ggml_threadpool_free:                  ; @ggml_threadpool_free
Lfunc_begin26:
	.loc	0 2572 0                        ; ggml/src/ggml-cpu/ggml-cpu.c:2572:0
	.cfi_startproc
; %bb.0:
	sub	sp, sp, #64
	stp	x29, x30, [sp, #48]             ; 16-byte Folded Spill
	add	x29, sp, #48
	.cfi_def_cfa w29, 16
	.cfi_offset w30, -8
	.cfi_offset w29, -16
	stur	x0, [x29, #-8]
Ltmp303:
	.loc	0 2573 10 prologue_end          ; ggml/src/ggml-cpu/ggml-cpu.c:2573:10
	ldur	x8, [x29, #-8]
Ltmp304:
	.loc	0 2573 9 is_stmt 0              ; ggml/src/ggml-cpu/ggml-cpu.c:2573:9
	cbnz	x8, LBB26_2
	b	LBB26_1
LBB26_1:
Ltmp305:
	.loc	0 2573 22                       ; ggml/src/ggml-cpu/ggml-cpu.c:2573:22
	b	LBB26_10
Ltmp306:
LBB26_2:
	.loc	0 2575 27 is_stmt 1             ; ggml/src/ggml-cpu/ggml-cpu.c:2575:27
	ldur	x8, [x29, #-8]
	.loc	0 2575 39 is_stmt 0             ; ggml/src/ggml-cpu/ggml-cpu.c:2575:39
	ldr	w8, [x8, #344]
	.loc	0 2575 15                       ; ggml/src/ggml-cpu/ggml-cpu.c:2575:15
	stur	w8, [x29, #-12]
	.loc	0 2578 42 is_stmt 1             ; ggml/src/ggml-cpu/ggml-cpu.c:2578:42
	ldur	x8, [x29, #-8]
	.loc	0 2578 54 is_stmt 0             ; ggml/src/ggml-cpu/ggml-cpu.c:2578:54
	ldr	x8, [x8, #336]
	.loc	0 2578 32                       ; ggml/src/ggml-cpu/ggml-cpu.c:2578:32
	str	x8, [sp, #24]
	.loc	0 2580 5 is_stmt 1              ; ggml/src/ggml-cpu/ggml-cpu.c:2580:5
	ldur	x0, [x29, #-8]
	bl	_pthread_mutex_lock
	.loc	0 2582 5                        ; ggml/src/ggml-cpu/ggml-cpu.c:2582:5
	ldur	x8, [x29, #-8]
	.loc	0 2582 17 is_stmt 0             ; ggml/src/ggml-cpu/ggml-cpu.c:2582:17
	add	x9, x8, #324
	.loc	0 2582 22                       ; ggml/src/ggml-cpu/ggml-cpu.c:2582:22
	mov	w8, #1                          ; =0x1
	stlrb	w8, [x9]
	.loc	0 2583 5 is_stmt 1              ; ggml/src/ggml-cpu/ggml-cpu.c:2583:5
	ldur	x8, [x29, #-8]
	.loc	0 2583 17 is_stmt 0             ; ggml/src/ggml-cpu/ggml-cpu.c:2583:17
	add	x9, x8, #325
	.loc	0 2583 23                       ; ggml/src/ggml-cpu/ggml-cpu.c:2583:23
	mov	w8, #0                          ; =0x0
	stlrb	w8, [x9]
	.loc	0 2585 5 is_stmt 1              ; ggml/src/ggml-cpu/ggml-cpu.c:2585:5
	ldur	x8, [x29, #-8]
	add	x0, x8, #64
	bl	_pthread_cond_broadcast
	.loc	0 2586 5                        ; ggml/src/ggml-cpu/ggml-cpu.c:2586:5
	ldur	x0, [x29, #-8]
	bl	_pthread_mutex_unlock
Ltmp307:
	.loc	0 2588 14                       ; ggml/src/ggml-cpu/ggml-cpu.c:2588:14
	mov	w8, #1                          ; =0x1
	str	w8, [sp, #20]
	.loc	0 2588 10 is_stmt 0             ; ggml/src/ggml-cpu/ggml-cpu.c:2588:10
	b	LBB26_3
LBB26_3:                                ; =>This Inner Loop Header: Depth=1
Ltmp308:
	.loc	0 2588 21                       ; ggml/src/ggml-cpu/ggml-cpu.c:2588:21
	ldr	w8, [sp, #20]
	.loc	0 2588 25                       ; ggml/src/ggml-cpu/ggml-cpu.c:2588:25
	ldur	w9, [x29, #-12]
Ltmp309:
	.loc	0 2588 5                        ; ggml/src/ggml-cpu/ggml-cpu.c:2588:5
	subs	w8, w8, w9
	b.ge	LBB26_9
	b	LBB26_4
LBB26_4:                                ;   in Loop: Header=BB26_3 Depth=1
Ltmp310:
	.loc	0 2589 39 is_stmt 1             ; ggml/src/ggml-cpu/ggml-cpu.c:2589:39
	ldr	x8, [sp, #24]
	.loc	0 2589 47 is_stmt 0             ; ggml/src/ggml-cpu/ggml-cpu.c:2589:47
	ldrsw	x9, [sp, #20]
	mov	x10, #544                       ; =0x220
	.loc	0 2589 39                       ; ggml/src/ggml-cpu/ggml-cpu.c:2589:39
	mul	x9, x9, x10
	.loc	0 2589 50                       ; ggml/src/ggml-cpu/ggml-cpu.c:2589:50
	ldr	x0, [x8, x9]
	.loc	0 2589 22                       ; ggml/src/ggml-cpu/ggml-cpu.c:2589:22
	mov	x1, #0                          ; =0x0
	bl	_pthread_join
	.loc	0 2589 17                       ; ggml/src/ggml-cpu/ggml-cpu.c:2589:17
	str	w0, [sp, #16]
Ltmp311:
	.loc	0 2590 9 is_stmt 1              ; ggml/src/ggml-cpu/ggml-cpu.c:2590:9
	ldr	w8, [sp, #16]
	cbz	w8, LBB26_7
	b	LBB26_5
LBB26_5:                                ;   in Loop: Header=BB26_3 Depth=1
	ldr	w8, [sp, #16]
Ltmp312:
	.loc	0 2590 9 is_stmt 0              ; ggml/src/ggml-cpu/ggml-cpu.c:2590:9
	subs	w8, w8, #1
	b.eq	LBB26_7
	b	LBB26_6
LBB26_6:
Ltmp313:
	.loc	0 2590 9                        ; ggml/src/ggml-cpu/ggml-cpu.c:2590:9
	mov	x9, sp
	adrp	x8, l_.str.11@PAGE
	add	x8, x8, l_.str.11@PAGEOFF
	str	x8, [x9]
	adrp	x0, l_.str.1@PAGE
	add	x0, x0, l_.str.1@PAGEOFF
	mov	w1, #2590                       ; =0xa1e
	adrp	x2, l_.str.2@PAGE
	add	x2, x2, l_.str.2@PAGEOFF
	bl	_ggml_abort
Ltmp314:
LBB26_7:                                ;   in Loop: Header=BB26_3 Depth=1
	.loc	0 2592 5 is_stmt 1              ; ggml/src/ggml-cpu/ggml-cpu.c:2592:5
	b	LBB26_8
Ltmp315:
LBB26_8:                                ;   in Loop: Header=BB26_3 Depth=1
	.loc	0 2588 37                       ; ggml/src/ggml-cpu/ggml-cpu.c:2588:37
	ldr	w8, [sp, #20]
	add	w8, w8, #1
	str	w8, [sp, #20]
	.loc	0 2588 5 is_stmt 0              ; ggml/src/ggml-cpu/ggml-cpu.c:2588:5
	b	LBB26_3
Ltmp316:
LBB26_9:
	.loc	0 2594 5 is_stmt 1              ; ggml/src/ggml-cpu/ggml-cpu.c:2594:5
	ldur	x0, [x29, #-8]
	bl	_pthread_mutex_destroy
	.loc	0 2595 5                        ; ggml/src/ggml-cpu/ggml-cpu.c:2595:5
	ldur	x8, [x29, #-8]
	add	x0, x8, #64
	bl	_pthread_cond_destroy
	.loc	0 2598 69                       ; ggml/src/ggml-cpu/ggml-cpu.c:2598:69
	ldursw	x9, [x29, #-12]
	.loc	0 2598 67 is_stmt 0             ; ggml/src/ggml-cpu/ggml-cpu.c:2598:67
	mov	x8, #544                        ; =0x220
	mul	x8, x8, x9
	.loc	0 2598 18                       ; ggml/src/ggml-cpu/ggml-cpu.c:2598:18
	str	x8, [sp, #8]
	.loc	0 2599 23 is_stmt 1             ; ggml/src/ggml-cpu/ggml-cpu.c:2599:23
	ldur	x8, [x29, #-8]
	.loc	0 2599 35 is_stmt 0             ; ggml/src/ggml-cpu/ggml-cpu.c:2599:35
	ldr	x0, [x8, #336]
	.loc	0 2599 44                       ; ggml/src/ggml-cpu/ggml-cpu.c:2599:44
	ldr	x1, [sp, #8]
	.loc	0 2599 5                        ; ggml/src/ggml-cpu/ggml-cpu.c:2599:5
	bl	_ggml_aligned_free
	.loc	0 2600 23 is_stmt 1             ; ggml/src/ggml-cpu/ggml-cpu.c:2600:23
	ldur	x0, [x29, #-8]
	.loc	0 2600 5 is_stmt 0              ; ggml/src/ggml-cpu/ggml-cpu.c:2600:5
	mov	x1, #384                        ; =0x180
	bl	_ggml_aligned_free
	.loc	0 2601 1 is_stmt 1              ; ggml/src/ggml-cpu/ggml-cpu.c:2601:1
	b	LBB26_10
LBB26_10:
	.loc	0 2601 1 epilogue_begin is_stmt 0 ; ggml/src/ggml-cpu/ggml-cpu.c:2601:1
	ldp	x29, x30, [sp, #48]             ; 16-byte Folded Reload
	add	sp, sp, #64
	ret
Ltmp317:
Lfunc_end26:
	.cfi_endproc
                                        ; -- End function
	.globl	_ggml_threadpool_pause          ; -- Begin function ggml_threadpool_pause
	.p2align	2
_ggml_threadpool_pause:                 ; @ggml_threadpool_pause
Lfunc_begin27:
	.loc	0 2618 0 is_stmt 1              ; ggml/src/ggml-cpu/ggml-cpu.c:2618:0
	.cfi_startproc
; %bb.0:
	sub	sp, sp, #32
	stp	x29, x30, [sp, #16]             ; 16-byte Folded Spill
	add	x29, sp, #16
	.cfi_def_cfa w29, 16
	.cfi_offset w30, -8
	.cfi_offset w29, -16
	str	x0, [sp, #8]
Ltmp318:
	.loc	0 2620 5 prologue_end           ; ggml/src/ggml-cpu/ggml-cpu.c:2620:5
	ldr	x0, [sp, #8]
	bl	_pthread_mutex_lock
Ltmp319:
	.loc	0 2621 10                       ; ggml/src/ggml-cpu/ggml-cpu.c:2621:10
	ldr	x8, [sp, #8]
	.loc	0 2621 22 is_stmt 0             ; ggml/src/ggml-cpu/ggml-cpu.c:2621:22
	add	x8, x8, #325
	ldarb	w8, [x8]
Ltmp320:
	.loc	0 2621 9                        ; ggml/src/ggml-cpu/ggml-cpu.c:2621:9
	tbnz	w8, #0, LBB27_2
	b	LBB27_1
LBB27_1:
Ltmp321:
	.loc	0 2622 37 is_stmt 1             ; ggml/src/ggml-cpu/ggml-cpu.c:2622:37
	ldr	x0, [sp, #8]
	.loc	0 2622 8 is_stmt 0              ; ggml/src/ggml-cpu/ggml-cpu.c:2622:8
	bl	_ggml_threadpool_pause_locked
	.loc	0 2623 5 is_stmt 1              ; ggml/src/ggml-cpu/ggml-cpu.c:2623:5
	b	LBB27_2
Ltmp322:
LBB27_2:
	.loc	0 2624 5                        ; ggml/src/ggml-cpu/ggml-cpu.c:2624:5
	ldr	x0, [sp, #8]
	bl	_pthread_mutex_unlock
	.loc	0 2628 1 epilogue_begin         ; ggml/src/ggml-cpu/ggml-cpu.c:2628:1
	ldp	x29, x30, [sp, #16]             ; 16-byte Folded Reload
	add	sp, sp, #32
	ret
Ltmp323:
Lfunc_end27:
	.cfi_endproc
                                        ; -- End function
	.p2align	2                               ; -- Begin function ggml_threadpool_pause_locked
_ggml_threadpool_pause_locked:          ; @ggml_threadpool_pause_locked
Lfunc_begin28:
	.loc	0 2605 0                        ; ggml/src/ggml-cpu/ggml-cpu.c:2605:0
	.cfi_startproc
; %bb.0:
	sub	sp, sp, #32
	stp	x29, x30, [sp, #16]             ; 16-byte Folded Spill
	add	x29, sp, #16
	.cfi_def_cfa w29, 16
	.cfi_offset w30, -8
	.cfi_offset w29, -16
	str	x0, [sp, #8]
Ltmp324:
	.loc	0 2607 5 prologue_end           ; ggml/src/ggml-cpu/ggml-cpu.c:2607:5
	ldr	x8, [sp, #8]
	.loc	0 2607 17 is_stmt 0             ; ggml/src/ggml-cpu/ggml-cpu.c:2607:17
	add	x9, x8, #325
	.loc	0 2607 23                       ; ggml/src/ggml-cpu/ggml-cpu.c:2607:23
	mov	w8, #1                          ; =0x1
	stlrb	w8, [x9]
	.loc	0 2608 5 is_stmt 1              ; ggml/src/ggml-cpu/ggml-cpu.c:2608:5
	ldr	x8, [sp, #8]
	add	x0, x8, #64
	bl	_pthread_cond_broadcast
	.loc	0 2609 1 epilogue_begin         ; ggml/src/ggml-cpu/ggml-cpu.c:2609:1
	ldp	x29, x30, [sp, #16]             ; 16-byte Folded Reload
	add	sp, sp, #32
	ret
Ltmp325:
Lfunc_end28:
	.cfi_endproc
                                        ; -- End function
	.globl	_ggml_threadpool_resume         ; -- Begin function ggml_threadpool_resume
	.p2align	2
_ggml_threadpool_resume:                ; @ggml_threadpool_resume
Lfunc_begin29:
	.loc	0 2630 0                        ; ggml/src/ggml-cpu/ggml-cpu.c:2630:0
	.cfi_startproc
; %bb.0:
	sub	sp, sp, #32
	stp	x29, x30, [sp, #16]             ; 16-byte Folded Spill
	add	x29, sp, #16
	.cfi_def_cfa w29, 16
	.cfi_offset w30, -8
	.cfi_offset w29, -16
	str	x0, [sp, #8]
Ltmp326:
	.loc	0 2632 5 prologue_end           ; ggml/src/ggml-cpu/ggml-cpu.c:2632:5
	ldr	x0, [sp, #8]
	bl	_pthread_mutex_lock
Ltmp327:
	.loc	0 2633 9                        ; ggml/src/ggml-cpu/ggml-cpu.c:2633:9
	ldr	x8, [sp, #8]
	.loc	0 2633 21 is_stmt 0             ; ggml/src/ggml-cpu/ggml-cpu.c:2633:21
	add	x8, x8, #325
	ldarb	w8, [x8]
Ltmp328:
	.loc	0 2633 9                        ; ggml/src/ggml-cpu/ggml-cpu.c:2633:9
	tbz	w8, #0, LBB29_2
	b	LBB29_1
LBB29_1:
Ltmp329:
	.loc	0 2634 38 is_stmt 1             ; ggml/src/ggml-cpu/ggml-cpu.c:2634:38
	ldr	x0, [sp, #8]
	.loc	0 2634 8 is_stmt 0              ; ggml/src/ggml-cpu/ggml-cpu.c:2634:8
	bl	_ggml_threadpool_resume_locked
	.loc	0 2635 5 is_stmt 1              ; ggml/src/ggml-cpu/ggml-cpu.c:2635:5
	b	LBB29_2
Ltmp330:
LBB29_2:
	.loc	0 2636 5                        ; ggml/src/ggml-cpu/ggml-cpu.c:2636:5
	ldr	x0, [sp, #8]
	bl	_pthread_mutex_unlock
	.loc	0 2640 1 epilogue_begin         ; ggml/src/ggml-cpu/ggml-cpu.c:2640:1
	ldp	x29, x30, [sp, #16]             ; 16-byte Folded Reload
	add	sp, sp, #32
	ret
Ltmp331:
Lfunc_end29:
	.cfi_endproc
                                        ; -- End function
	.p2align	2                               ; -- Begin function ggml_threadpool_resume_locked
_ggml_threadpool_resume_locked:         ; @ggml_threadpool_resume_locked
Lfunc_begin30:
	.loc	0 2611 0                        ; ggml/src/ggml-cpu/ggml-cpu.c:2611:0
	.cfi_startproc
; %bb.0:
	sub	sp, sp, #32
	stp	x29, x30, [sp, #16]             ; 16-byte Folded Spill
	add	x29, sp, #16
	.cfi_def_cfa w29, 16
	.cfi_offset w30, -8
	.cfi_offset w29, -16
	str	x0, [sp, #8]
Ltmp332:
	.loc	0 2613 5 prologue_end           ; ggml/src/ggml-cpu/ggml-cpu.c:2613:5
	ldr	x8, [sp, #8]
	.loc	0 2613 17 is_stmt 0             ; ggml/src/ggml-cpu/ggml-cpu.c:2613:17
	add	x9, x8, #325
	.loc	0 2613 23                       ; ggml/src/ggml-cpu/ggml-cpu.c:2613:23
	mov	w8, #0                          ; =0x0
	stlrb	w8, [x9]
	.loc	0 2614 5 is_stmt 1              ; ggml/src/ggml-cpu/ggml-cpu.c:2614:5
	ldr	x8, [sp, #8]
	add	x0, x8, #64
	bl	_pthread_cond_broadcast
	.loc	0 2615 1 epilogue_begin         ; ggml/src/ggml-cpu/ggml-cpu.c:2615:1
	ldp	x29, x30, [sp, #16]             ; 16-byte Folded Reload
	add	sp, sp, #32
	ret
Ltmp333:
Lfunc_end30:
	.cfi_endproc
                                        ; -- End function
	.globl	_ggml_graph_plan                ; -- Begin function ggml_graph_plan
	.p2align	2
_ggml_graph_plan:                       ; @ggml_graph_plan
Lfunc_begin31:
	.loc	0 2645 0                        ; ggml/src/ggml-cpu/ggml-cpu.c:2645:0
	.cfi_startproc
; %bb.0:
	sub	sp, sp, #336
	stp	x28, x27, [sp, #304]            ; 16-byte Folded Spill
	stp	x29, x30, [sp, #320]            ; 16-byte Folded Spill
	add	x29, sp, #320
	.cfi_def_cfa w29, 16
	.cfi_offset w30, -8
	.cfi_offset w29, -16
	.cfi_offset w27, -24
	.cfi_offset w28, -32
	str	x8, [sp, #56]                   ; 8-byte Folded Spill
	stur	x0, [x29, #-24]
	stur	w1, [x29, #-28]
	stur	x2, [x29, #-40]
Ltmp334:
	.loc	0 2647 9 prologue_end           ; ggml/src/ggml-cpu/ggml-cpu.c:2647:9
	ldur	x8, [x29, #-40]
Ltmp335:
	.loc	0 2647 9 is_stmt 0              ; ggml/src/ggml-cpu/ggml-cpu.c:2647:9
	cbnz	x8, LBB31_2
	b	LBB31_1
LBB31_1:
Ltmp336:
	.loc	0 2649 5 is_stmt 1              ; ggml/src/ggml-cpu/ggml-cpu.c:2649:5
	b	LBB31_2
Ltmp337:
LBB31_2:
	.loc	0 2650 9                        ; ggml/src/ggml-cpu/ggml-cpu.c:2650:9
	ldur	w8, [x29, #-28]
Ltmp338:
	.loc	0 2650 9 is_stmt 0              ; ggml/src/ggml-cpu/ggml-cpu.c:2650:9
	subs	w8, w8, #0
	b.gt	LBB31_7
	b	LBB31_3
LBB31_3:
Ltmp339:
	.loc	0 2651 21 is_stmt 1             ; ggml/src/ggml-cpu/ggml-cpu.c:2651:21
	ldur	x8, [x29, #-40]
	cbz	x8, LBB31_5
	b	LBB31_4
LBB31_4:
	.loc	0 2651 34 is_stmt 0             ; ggml/src/ggml-cpu/ggml-cpu.c:2651:34
	ldur	x8, [x29, #-40]
	.loc	0 2651 46                       ; ggml/src/ggml-cpu/ggml-cpu.c:2651:46
	ldr	w8, [x8, #344]
	str	w8, [sp, #52]                   ; 4-byte Folded Spill
	.loc	0 2651 21                       ; ggml/src/ggml-cpu/ggml-cpu.c:2651:21
	b	LBB31_6
LBB31_5:
	.loc	0 0 21                          ; ggml/src/ggml-cpu/ggml-cpu.c:0:21
	mov	w8, #4                          ; =0x4
	str	w8, [sp, #52]                   ; 4-byte Folded Spill
	.loc	0 2651 21                       ; ggml/src/ggml-cpu/ggml-cpu.c:2651:21
	b	LBB31_6
LBB31_6:
	.loc	0 0 21                          ; ggml/src/ggml-cpu/ggml-cpu.c:0:21
	ldr	w8, [sp, #52]                   ; 4-byte Folded Reload
	.loc	0 2651 19                       ; ggml/src/ggml-cpu/ggml-cpu.c:2651:19
	stur	w8, [x29, #-28]
	.loc	0 2652 5 is_stmt 1              ; ggml/src/ggml-cpu/ggml-cpu.c:2652:5
	b	LBB31_7
Ltmp340:
LBB31_7:
	.loc	0 0 5 is_stmt 0                 ; ggml/src/ggml-cpu/ggml-cpu.c:0:5
	ldr	x0, [sp, #56]                   ; 8-byte Folded Reload
	.loc	0 2654 12 is_stmt 1             ; ggml/src/ggml-cpu/ggml-cpu.c:2654:12
	stur	xzr, [x29, #-48]
Ltmp341:
	;DEBUG_VALUE: ggml_graph_plan:cplan <- [DW_OP_plus_uconst 56, DW_OP_deref] [$sp+0]
	.loc	0 2657 5                        ; ggml/src/ggml-cpu/ggml-cpu.c:2657:5
	mov	x2, #48                         ; =0x30
	.loc	0 0 0 is_stmt 0                 ; ggml/src/ggml-cpu/ggml-cpu.c:0:0
	mov	w1, #0                          ; =0x0
	.loc	0 2657 5                        ; ggml/src/ggml-cpu/ggml-cpu.c:2657:5
	bl	_memset
	.loc	0 2659 9 is_stmt 1              ; ggml/src/ggml-cpu/ggml-cpu.c:2659:9
	mov	w8, #1                          ; =0x1
	stur	w8, [x29, #-52]
Ltmp342:
	.loc	0 2662 14                       ; ggml/src/ggml-cpu/ggml-cpu.c:2662:14
	stur	wzr, [x29, #-56]
	.loc	0 2662 10 is_stmt 0             ; ggml/src/ggml-cpu/ggml-cpu.c:2662:10
	b	LBB31_8
Ltmp343:
LBB31_8:                                ; =>This Inner Loop Header: Depth=1
	;DEBUG_VALUE: ggml_graph_plan:cplan <- [DW_OP_plus_uconst 56, DW_OP_deref] [$sp+0]
	.loc	0 2662 21                       ; ggml/src/ggml-cpu/ggml-cpu.c:2662:21
	ldur	w8, [x29, #-56]
	.loc	0 2662 25                       ; ggml/src/ggml-cpu/ggml-cpu.c:2662:25
	ldur	x9, [x29, #-24]
	.loc	0 2662 33                       ; ggml/src/ggml-cpu/ggml-cpu.c:2662:33
	ldr	w9, [x9, #4]
Ltmp344:
	.loc	0 2662 5                        ; ggml/src/ggml-cpu/ggml-cpu.c:2662:5
	subs	w8, w8, w9
	b.ge	LBB31_80
	b	LBB31_9
Ltmp345:
LBB31_9:                                ;   in Loop: Header=BB31_8 Depth=1
	;DEBUG_VALUE: ggml_graph_plan:cplan <- [DW_OP_plus_uconst 56, DW_OP_deref] [$sp+0]
	.loc	0 2663 37 is_stmt 1             ; ggml/src/ggml-cpu/ggml-cpu.c:2663:37
	ldur	x8, [x29, #-24]
	.loc	0 2663 45 is_stmt 0             ; ggml/src/ggml-cpu/ggml-cpu.c:2663:45
	ldr	x8, [x8, #16]
	.loc	0 2663 51                       ; ggml/src/ggml-cpu/ggml-cpu.c:2663:51
	ldursw	x9, [x29, #-56]
	.loc	0 2663 37                       ; ggml/src/ggml-cpu/ggml-cpu.c:2663:37
	ldr	x8, [x8, x9, lsl #3]
	.loc	0 2663 30                       ; ggml/src/ggml-cpu/ggml-cpu.c:2663:30
	stur	x8, [x29, #-64]
	.loc	0 2665 46 is_stmt 1             ; ggml/src/ggml-cpu/ggml-cpu.c:2665:46
	ldur	x0, [x29, #-64]
	.loc	0 2665 52 is_stmt 0             ; ggml/src/ggml-cpu/ggml-cpu.c:2665:52
	ldur	w1, [x29, #-28]
	.loc	0 2665 29                       ; ggml/src/ggml-cpu/ggml-cpu.c:2665:29
	bl	_ggml_get_n_tasks
	.loc	0 2665 19                       ; ggml/src/ggml-cpu/ggml-cpu.c:2665:19
	stur	w0, [x29, #-68]
	.loc	0 2667 21 is_stmt 1             ; ggml/src/ggml-cpu/ggml-cpu.c:2667:21
	ldur	w8, [x29, #-52]
	ldur	w9, [x29, #-68]
	subs	w8, w8, w9
	b.le	LBB31_11
	b	LBB31_10
Ltmp346:
LBB31_10:                               ;   in Loop: Header=BB31_8 Depth=1
	;DEBUG_VALUE: ggml_graph_plan:cplan <- [DW_OP_plus_uconst 56, DW_OP_deref] [$sp+0]
	ldur	w8, [x29, #-52]
	str	w8, [sp, #48]                   ; 4-byte Folded Spill
	b	LBB31_12
Ltmp347:
LBB31_11:                               ;   in Loop: Header=BB31_8 Depth=1
	;DEBUG_VALUE: ggml_graph_plan:cplan <- [DW_OP_plus_uconst 56, DW_OP_deref] [$sp+0]
	ldur	w8, [x29, #-68]
	str	w8, [sp, #48]                   ; 4-byte Folded Spill
	b	LBB31_12
Ltmp348:
LBB31_12:                               ;   in Loop: Header=BB31_8 Depth=1
	;DEBUG_VALUE: ggml_graph_plan:cplan <- [DW_OP_plus_uconst 56, DW_OP_deref] [$sp+0]
	.loc	0 0 21 is_stmt 0                ; ggml/src/ggml-cpu/ggml-cpu.c:0:21
	ldr	w8, [sp, #48]                   ; 4-byte Folded Reload
	.loc	0 2667 19                       ; ggml/src/ggml-cpu/ggml-cpu.c:2667:19
	stur	w8, [x29, #-52]
	sub	x2, x29, #80
	.loc	0 2669 16 is_stmt 1             ; ggml/src/ggml-cpu/ggml-cpu.c:2669:16
	stur	xzr, [x29, #-80]
Ltmp349:
	.loc	0 2671 39                       ; ggml/src/ggml-cpu/ggml-cpu.c:2671:39
	ldur	w0, [x29, #-28]
	.loc	0 2671 50 is_stmt 0             ; ggml/src/ggml-cpu/ggml-cpu.c:2671:50
	ldur	x1, [x29, #-64]
	.loc	0 2671 14                       ; ggml/src/ggml-cpu/ggml-cpu.c:2671:14
	bl	_ggml_cpu_extra_work_size
Ltmp350:
	.loc	0 2671 13                       ; ggml/src/ggml-cpu/ggml-cpu.c:2671:13
	tbnz	w0, #0, LBB31_75
	b	LBB31_13
Ltmp351:
LBB31_13:                               ;   in Loop: Header=BB31_8 Depth=1
	;DEBUG_VALUE: ggml_graph_plan:cplan <- [DW_OP_plus_uconst 56, DW_OP_deref] [$sp+0]
	.loc	0 2672 21 is_stmt 1             ; ggml/src/ggml-cpu/ggml-cpu.c:2672:21
	ldur	x8, [x29, #-64]
	.loc	0 2672 27 is_stmt 0             ; ggml/src/ggml-cpu/ggml-cpu.c:2672:27
	ldr	w8, [x8, #80]
	.loc	0 2672 13                       ; ggml/src/ggml-cpu/ggml-cpu.c:2672:13
	subs	w8, w8, #1
	mov	w8, w8
                                        ; kill: def $x8 killed $w8
	str	x8, [sp, #40]                   ; 8-byte Folded Spill
	subs	x8, x8, #81
	b.hi	LBB31_73
Ltmp352:
; %bb.14:                               ;   in Loop: Header=BB31_8 Depth=1
	;DEBUG_VALUE: ggml_graph_plan:cplan <- [DW_OP_plus_uconst 56, DW_OP_deref] [$sp+0]
	.loc	0 0 13                          ; ggml/src/ggml-cpu/ggml-cpu.c:0:13
	ldr	x11, [sp, #40]                  ; 8-byte Folded Reload
	.loc	0 2672 13                       ; ggml/src/ggml-cpu/ggml-cpu.c:2672:13
	adrp	x10, lJTI31_0@PAGE
	add	x10, x10, lJTI31_0@PAGEOFF
Ltmp353:
	adr	x8, Ltmp353
	ldrsw	x9, [x10, x11, lsl #2]
	add	x8, x8, x9
	br	x8
Ltmp354:
LBB31_15:                               ;   in Loop: Header=BB31_8 Depth=1
	;DEBUG_VALUE: ggml_graph_plan:cplan <- [DW_OP_plus_uconst 56, DW_OP_deref] [$sp+0]
	.loc	0 2676 47 is_stmt 1             ; ggml/src/ggml-cpu/ggml-cpu.c:2676:47
	ldur	x8, [x29, #-64]
	.loc	0 2676 53 is_stmt 0             ; ggml/src/ggml-cpu/ggml-cpu.c:2676:53
	ldr	w0, [x8]
	.loc	0 2676 29                       ; ggml/src/ggml-cpu/ggml-cpu.c:2676:29
	bl	_ggml_is_quantized
	.loc	0 2676 59                       ; ggml/src/ggml-cpu/ggml-cpu.c:2676:59
	tbnz	w0, #0, LBB31_22
	b	LBB31_16
Ltmp355:
LBB31_16:                               ;   in Loop: Header=BB31_8 Depth=1
	;DEBUG_VALUE: ggml_graph_plan:cplan <- [DW_OP_plus_uconst 56, DW_OP_deref] [$sp+0]
	.loc	0 2678 30 is_stmt 1             ; ggml/src/ggml-cpu/ggml-cpu.c:2678:30
	ldur	x8, [x29, #-64]
	ldr	x8, [x8, #152]
	.loc	0 2678 44 is_stmt 0             ; ggml/src/ggml-cpu/ggml-cpu.c:2678:44
	ldr	w8, [x8]
	.loc	0 2678 67                       ; ggml/src/ggml-cpu/ggml-cpu.c:2678:67
	subs	w8, w8, #1
	b.ne	LBB31_19
	b	LBB31_17
Ltmp356:
LBB31_17:                               ;   in Loop: Header=BB31_8 Depth=1
	;DEBUG_VALUE: ggml_graph_plan:cplan <- [DW_OP_plus_uconst 56, DW_OP_deref] [$sp+0]
	.loc	0 2678 70                       ; ggml/src/ggml-cpu/ggml-cpu.c:2678:70
	ldur	x8, [x29, #-64]
	ldr	x8, [x8, #160]
	.loc	0 2678 83                       ; ggml/src/ggml-cpu/ggml-cpu.c:2678:83
	cbz	x8, LBB31_19
	b	LBB31_18
Ltmp357:
LBB31_18:                               ;   in Loop: Header=BB31_8 Depth=1
	;DEBUG_VALUE: ggml_graph_plan:cplan <- [DW_OP_plus_uconst 56, DW_OP_deref] [$sp+0]
	.loc	0 2678 86                       ; ggml/src/ggml-cpu/ggml-cpu.c:2678:86
	ldur	x8, [x29, #-64]
	ldr	x8, [x8, #160]
	.loc	0 2678 100                      ; ggml/src/ggml-cpu/ggml-cpu.c:2678:100
	ldr	w8, [x8]
	.loc	0 2678 124                      ; ggml/src/ggml-cpu/ggml-cpu.c:2678:124
	subs	w8, w8, #30
	b.eq	LBB31_22
	b	LBB31_19
Ltmp358:
LBB31_19:                               ;   in Loop: Header=BB31_8 Depth=1
	;DEBUG_VALUE: ggml_graph_plan:cplan <- [DW_OP_plus_uconst 56, DW_OP_deref] [$sp+0]
	.loc	0 2679 30 is_stmt 1             ; ggml/src/ggml-cpu/ggml-cpu.c:2679:30
	ldur	x8, [x29, #-64]
	ldr	x8, [x8, #152]
	.loc	0 2679 44 is_stmt 0             ; ggml/src/ggml-cpu/ggml-cpu.c:2679:44
	ldr	w8, [x8]
	.loc	0 2679 67                       ; ggml/src/ggml-cpu/ggml-cpu.c:2679:67
	subs	w8, w8, #30
	b.ne	LBB31_23
	b	LBB31_20
Ltmp359:
LBB31_20:                               ;   in Loop: Header=BB31_8 Depth=1
	;DEBUG_VALUE: ggml_graph_plan:cplan <- [DW_OP_plus_uconst 56, DW_OP_deref] [$sp+0]
	.loc	0 2679 70                       ; ggml/src/ggml-cpu/ggml-cpu.c:2679:70
	ldur	x8, [x29, #-64]
	ldr	x8, [x8, #160]
	.loc	0 2679 83                       ; ggml/src/ggml-cpu/ggml-cpu.c:2679:83
	cbz	x8, LBB31_23
	b	LBB31_21
Ltmp360:
LBB31_21:                               ;   in Loop: Header=BB31_8 Depth=1
	;DEBUG_VALUE: ggml_graph_plan:cplan <- [DW_OP_plus_uconst 56, DW_OP_deref] [$sp+0]
	.loc	0 2679 86                       ; ggml/src/ggml-cpu/ggml-cpu.c:2679:86
	ldur	x8, [x29, #-64]
	ldr	x8, [x8, #160]
	.loc	0 2679 100                      ; ggml/src/ggml-cpu/ggml-cpu.c:2679:100
	ldr	w8, [x8]
Ltmp361:
	.loc	0 2676 29 is_stmt 1             ; ggml/src/ggml-cpu/ggml-cpu.c:2676:29
	subs	w8, w8, #1
	b.ne	LBB31_23
	b	LBB31_22
Ltmp362:
LBB31_22:                               ;   in Loop: Header=BB31_8 Depth=1
	;DEBUG_VALUE: ggml_graph_plan:cplan <- [DW_OP_plus_uconst 56, DW_OP_deref] [$sp+0]
	.loc	0 2680 35                       ; ggml/src/ggml-cpu/ggml-cpu.c:2680:35
	mov	w0, #0                          ; =0x0
	bl	_ggml_type_size
	.loc	0 2680 67 is_stmt 0             ; ggml/src/ggml-cpu/ggml-cpu.c:2680:67
	ldur	x8, [x29, #-64]
	ldr	x8, [x8, #16]
	.loc	0 2680 65                       ; ggml/src/ggml-cpu/ggml-cpu.c:2680:65
	mul	x8, x0, x8
	.loc	0 2680 81                       ; ggml/src/ggml-cpu/ggml-cpu.c:2680:81
	ldursw	x9, [x29, #-68]
	.loc	0 2680 79                       ; ggml/src/ggml-cpu/ggml-cpu.c:2680:79
	mul	x8, x8, x9
	.loc	0 2680 33                       ; ggml/src/ggml-cpu/ggml-cpu.c:2680:33
	stur	x8, [x29, #-80]
	.loc	0 2681 25 is_stmt 1             ; ggml/src/ggml-cpu/ggml-cpu.c:2681:25
	b	LBB31_23
Ltmp363:
LBB31_23:                               ;   in Loop: Header=BB31_8 Depth=1
	;DEBUG_VALUE: ggml_graph_plan:cplan <- [DW_OP_plus_uconst 56, DW_OP_deref] [$sp+0]
	.loc	0 2682 23                       ; ggml/src/ggml-cpu/ggml-cpu.c:2682:23
	b	LBB31_74
Ltmp364:
LBB31_24:                               ;   in Loop: Header=BB31_8 Depth=1
	;DEBUG_VALUE: ggml_graph_plan:cplan <- [DW_OP_plus_uconst 56, DW_OP_deref] [$sp+0]
	.loc	0 2686 47                       ; ggml/src/ggml-cpu/ggml-cpu.c:2686:47
	ldur	x8, [x29, #-64]
	ldr	x8, [x8, #152]
	.loc	0 2686 61 is_stmt 0             ; ggml/src/ggml-cpu/ggml-cpu.c:2686:61
	ldr	w0, [x8]
	.loc	0 2686 29                       ; ggml/src/ggml-cpu/ggml-cpu.c:2686:29
	bl	_ggml_is_quantized
Ltmp365:
	.loc	0 2686 29                       ; ggml/src/ggml-cpu/ggml-cpu.c:2686:29
	tbz	w0, #0, LBB31_26
	b	LBB31_25
Ltmp366:
LBB31_25:                               ;   in Loop: Header=BB31_8 Depth=1
	;DEBUG_VALUE: ggml_graph_plan:cplan <- [DW_OP_plus_uconst 56, DW_OP_deref] [$sp+0]
	.loc	0 2687 35 is_stmt 1             ; ggml/src/ggml-cpu/ggml-cpu.c:2687:35
	mov	w0, #0                          ; =0x0
	bl	_ggml_type_size
	.loc	0 2687 67 is_stmt 0             ; ggml/src/ggml-cpu/ggml-cpu.c:2687:67
	ldur	x8, [x29, #-64]
	ldr	x8, [x8, #152]
	ldr	x8, [x8, #16]
	.loc	0 2687 65                       ; ggml/src/ggml-cpu/ggml-cpu.c:2687:65
	mul	x8, x0, x8
	.loc	0 2687 89                       ; ggml/src/ggml-cpu/ggml-cpu.c:2687:89
	ldursw	x9, [x29, #-68]
	.loc	0 2687 87                       ; ggml/src/ggml-cpu/ggml-cpu.c:2687:87
	mul	x8, x8, x9
	.loc	0 2687 33                       ; ggml/src/ggml-cpu/ggml-cpu.c:2687:33
	stur	x8, [x29, #-80]
	.loc	0 2688 25 is_stmt 1             ; ggml/src/ggml-cpu/ggml-cpu.c:2688:25
	b	LBB31_26
Ltmp367:
LBB31_26:                               ;   in Loop: Header=BB31_8 Depth=1
	;DEBUG_VALUE: ggml_graph_plan:cplan <- [DW_OP_plus_uconst 56, DW_OP_deref] [$sp+0]
	.loc	0 2689 23                       ; ggml/src/ggml-cpu/ggml-cpu.c:2689:23
	b	LBB31_74
Ltmp368:
LBB31_27:                               ;   in Loop: Header=BB31_8 Depth=1
	;DEBUG_VALUE: ggml_graph_plan:cplan <- [DW_OP_plus_uconst 56, DW_OP_deref] [$sp+0]
	.loc	0 2692 47                       ; ggml/src/ggml-cpu/ggml-cpu.c:2692:47
	ldur	x8, [x29, #-64]
	ldr	x8, [x8, #152]
	.loc	0 2692 61 is_stmt 0             ; ggml/src/ggml-cpu/ggml-cpu.c:2692:61
	ldr	w0, [x8]
	.loc	0 2692 29                       ; ggml/src/ggml-cpu/ggml-cpu.c:2692:29
	bl	_ggml_is_quantized
Ltmp369:
	.loc	0 2692 29                       ; ggml/src/ggml-cpu/ggml-cpu.c:2692:29
	tbz	w0, #0, LBB31_29
	b	LBB31_28
Ltmp370:
LBB31_28:                               ;   in Loop: Header=BB31_8 Depth=1
	;DEBUG_VALUE: ggml_graph_plan:cplan <- [DW_OP_plus_uconst 56, DW_OP_deref] [$sp+0]
	.loc	0 2693 35 is_stmt 1             ; ggml/src/ggml-cpu/ggml-cpu.c:2693:35
	mov	w0, #0                          ; =0x0
	bl	_ggml_type_size
	.loc	0 2693 67 is_stmt 0             ; ggml/src/ggml-cpu/ggml-cpu.c:2693:67
	ldur	x8, [x29, #-64]
	ldr	x8, [x8, #160]
	ldr	x8, [x8, #16]
	.loc	0 2693 65                       ; ggml/src/ggml-cpu/ggml-cpu.c:2693:65
	mul	x8, x0, x8
	.loc	0 2693 89                       ; ggml/src/ggml-cpu/ggml-cpu.c:2693:89
	ldursw	x9, [x29, #-68]
	.loc	0 2693 87                       ; ggml/src/ggml-cpu/ggml-cpu.c:2693:87
	mul	x8, x8, x9
	.loc	0 2693 33                       ; ggml/src/ggml-cpu/ggml-cpu.c:2693:33
	stur	x8, [x29, #-80]
	.loc	0 2694 25 is_stmt 1             ; ggml/src/ggml-cpu/ggml-cpu.c:2694:25
	b	LBB31_29
Ltmp371:
LBB31_29:                               ;   in Loop: Header=BB31_8 Depth=1
	;DEBUG_VALUE: ggml_graph_plan:cplan <- [DW_OP_plus_uconst 56, DW_OP_deref] [$sp+0]
	.loc	0 2695 23                       ; ggml/src/ggml-cpu/ggml-cpu.c:2695:23
	b	LBB31_74
Ltmp372:
LBB31_30:                               ;   in Loop: Header=BB31_8 Depth=1
	;DEBUG_VALUE: ggml_graph_plan:cplan <- [DW_OP_plus_uconst 56, DW_OP_deref] [$sp+0]
	.loc	0 2698 46                       ; ggml/src/ggml-cpu/ggml-cpu.c:2698:46
	ldur	x8, [x29, #-64]
	.loc	0 2698 52 is_stmt 0             ; ggml/src/ggml-cpu/ggml-cpu.c:2698:52
	ldr	w0, [x8]
	.loc	0 2698 31                       ; ggml/src/ggml-cpu/ggml-cpu.c:2698:31
	bl	_ggml_type_size
	.loc	0 2698 58                       ; ggml/src/ggml-cpu/ggml-cpu.c:2698:58
	ldursw	x8, [x29, #-68]
	.loc	0 2698 57                       ; ggml/src/ggml-cpu/ggml-cpu.c:2698:57
	mul	x8, x0, x8
	.loc	0 2698 29                       ; ggml/src/ggml-cpu/ggml-cpu.c:2698:29
	stur	x8, [x29, #-80]
Ltmp373:
	.loc	0 2699 23 is_stmt 1             ; ggml/src/ggml-cpu/ggml-cpu.c:2699:23
	b	LBB31_74
Ltmp374:
LBB31_31:                               ;   in Loop: Header=BB31_8 Depth=1
	;DEBUG_VALUE: ggml_graph_plan:cplan <- [DW_OP_plus_uconst 56, DW_OP_deref] [$sp+0]
	.loc	0 2702 77                       ; ggml/src/ggml-cpu/ggml-cpu.c:2702:77
	ldur	x8, [x29, #-64]
	ldr	x8, [x8, #152]
	.loc	0 2702 91 is_stmt 0             ; ggml/src/ggml-cpu/ggml-cpu.c:2702:91
	ldr	w8, [x8]
	mov	x9, x8
	.loc	0 2702 61                       ; ggml/src/ggml-cpu/ggml-cpu.c:2702:61
	adrp	x8, _type_traits_cpu@PAGE
	add	x8, x8, _type_traits_cpu@PAGEOFF
	add	x8, x8, x9, lsl #5
	.loc	0 2702 97                       ; ggml/src/ggml-cpu/ggml-cpu.c:2702:97
	ldr	w8, [x8, #16]
	.loc	0 2702 46                       ; ggml/src/ggml-cpu/ggml-cpu.c:2702:46
	stur	w8, [x29, #-84]
Ltmp375:
	.loc	0 2704 29 is_stmt 1             ; ggml/src/ggml-cpu/ggml-cpu.c:2704:29
	ldur	x8, [x29, #-64]
	ldr	x8, [x8, #160]
	.loc	0 2704 43 is_stmt 0             ; ggml/src/ggml-cpu/ggml-cpu.c:2704:43
	ldr	w8, [x8]
	.loc	0 2704 51                       ; ggml/src/ggml-cpu/ggml-cpu.c:2704:51
	ldur	w9, [x29, #-84]
Ltmp376:
	.loc	0 2704 29                       ; ggml/src/ggml-cpu/ggml-cpu.c:2704:29
	subs	w8, w8, w9
	b.eq	LBB31_33
	b	LBB31_32
Ltmp377:
LBB31_32:                               ;   in Loop: Header=BB31_8 Depth=1
	;DEBUG_VALUE: ggml_graph_plan:cplan <- [DW_OP_plus_uconst 56, DW_OP_deref] [$sp+0]
	.loc	0 2705 49 is_stmt 1             ; ggml/src/ggml-cpu/ggml-cpu.c:2705:49
	ldur	w8, [x29, #-84]
	str	w8, [sp, #36]                   ; 4-byte Folded Spill
	.loc	0 2705 78 is_stmt 0             ; ggml/src/ggml-cpu/ggml-cpu.c:2705:78
	ldur	x8, [x29, #-64]
	ldr	x0, [x8, #160]
	.loc	0 2705 63                       ; ggml/src/ggml-cpu/ggml-cpu.c:2705:63
	bl	_ggml_nelements
	mov	x1, x0
	ldr	w0, [sp, #36]                   ; 4-byte Folded Reload
	.loc	0 2705 35                       ; ggml/src/ggml-cpu/ggml-cpu.c:2705:35
	bl	_ggml_row_size
	.loc	0 2705 33                       ; ggml/src/ggml-cpu/ggml-cpu.c:2705:33
	stur	x0, [x29, #-80]
	.loc	0 2706 25 is_stmt 1             ; ggml/src/ggml-cpu/ggml-cpu.c:2706:25
	b	LBB31_33
Ltmp378:
LBB31_33:                               ;   in Loop: Header=BB31_8 Depth=1
	;DEBUG_VALUE: ggml_graph_plan:cplan <- [DW_OP_plus_uconst 56, DW_OP_deref] [$sp+0]
	.loc	0 2707 23                       ; ggml/src/ggml-cpu/ggml-cpu.c:2707:23
	b	LBB31_74
Ltmp379:
LBB31_34:                               ;   in Loop: Header=BB31_8 Depth=1
	;DEBUG_VALUE: ggml_graph_plan:cplan <- [DW_OP_plus_uconst 56, DW_OP_deref] [$sp+0]
	.loc	0 2710 29                       ; ggml/src/ggml-cpu/ggml-cpu.c:2710:29
	stur	xzr, [x29, #-80]
	.loc	0 2711 59                       ; ggml/src/ggml-cpu/ggml-cpu.c:2711:59
	ldur	x8, [x29, #-64]
	ldr	x8, [x8, #152]
	.loc	0 2711 52 is_stmt 0             ; ggml/src/ggml-cpu/ggml-cpu.c:2711:52
	stur	x8, [x29, #-96]
	.loc	0 2712 59 is_stmt 1             ; ggml/src/ggml-cpu/ggml-cpu.c:2712:59
	ldur	x8, [x29, #-64]
	ldr	x8, [x8, #160]
	.loc	0 2712 52 is_stmt 0             ; ggml/src/ggml-cpu/ggml-cpu.c:2712:52
	stur	x8, [x29, #-104]
	.loc	0 2713 58 is_stmt 1             ; ggml/src/ggml-cpu/ggml-cpu.c:2713:58
	ldur	x8, [x29, #-64]
	ldr	x8, [x8, #168]
	.loc	0 2713 52 is_stmt 0             ; ggml/src/ggml-cpu/ggml-cpu.c:2713:52
	stur	x8, [x29, #-112]
	.loc	0 2714 77 is_stmt 1             ; ggml/src/ggml-cpu/ggml-cpu.c:2714:77
	ldur	x8, [x29, #-96]
	.loc	0 2714 83 is_stmt 0             ; ggml/src/ggml-cpu/ggml-cpu.c:2714:83
	ldr	w8, [x8]
	mov	x9, x8
	.loc	0 2714 61                       ; ggml/src/ggml-cpu/ggml-cpu.c:2714:61
	adrp	x8, _type_traits_cpu@PAGE
	add	x8, x8, _type_traits_cpu@PAGEOFF
	add	x8, x8, x9, lsl #5
	.loc	0 2714 89                       ; ggml/src/ggml-cpu/ggml-cpu.c:2714:89
	ldr	w8, [x8, #16]
	.loc	0 2714 46                       ; ggml/src/ggml-cpu/ggml-cpu.c:2714:46
	stur	w8, [x29, #-116]
	.loc	0 2715 42 is_stmt 1             ; ggml/src/ggml-cpu/ggml-cpu.c:2715:42
	ldur	x8, [x29, #-96]
	ldr	x8, [x8, #32]
                                        ; kill: def $w8 killed $w8 killed $x8
	.loc	0 2715 35 is_stmt 0             ; ggml/src/ggml-cpu/ggml-cpu.c:2715:35
	stur	w8, [x29, #-120]
Ltmp380:
	.loc	0 2717 29 is_stmt 1             ; ggml/src/ggml-cpu/ggml-cpu.c:2717:29
	ldur	x8, [x29, #-104]
	.loc	0 2717 35 is_stmt 0             ; ggml/src/ggml-cpu/ggml-cpu.c:2717:35
	ldr	w8, [x8]
	.loc	0 2717 43                       ; ggml/src/ggml-cpu/ggml-cpu.c:2717:43
	ldur	w9, [x29, #-116]
Ltmp381:
	.loc	0 2717 29                       ; ggml/src/ggml-cpu/ggml-cpu.c:2717:29
	subs	w8, w8, w9
	b.eq	LBB31_36
	b	LBB31_35
Ltmp382:
LBB31_35:                               ;   in Loop: Header=BB31_8 Depth=1
	;DEBUG_VALUE: ggml_graph_plan:cplan <- [DW_OP_plus_uconst 56, DW_OP_deref] [$sp+0]
	.loc	0 2718 50 is_stmt 1             ; ggml/src/ggml-cpu/ggml-cpu.c:2718:50
	ldur	w8, [x29, #-116]
	str	w8, [sp, #32]                   ; 4-byte Folded Spill
	.loc	0 2718 79 is_stmt 0             ; ggml/src/ggml-cpu/ggml-cpu.c:2718:79
	ldur	x0, [x29, #-104]
	.loc	0 2718 64                       ; ggml/src/ggml-cpu/ggml-cpu.c:2718:64
	bl	_ggml_nelements
	mov	x1, x0
	ldr	w0, [sp, #32]                   ; 4-byte Folded Reload
	.loc	0 2718 36                       ; ggml/src/ggml-cpu/ggml-cpu.c:2718:36
	bl	_ggml_row_size
	.loc	0 2718 86                       ; ggml/src/ggml-cpu/ggml-cpu.c:2718:86
	add	x9, x0, #8
	.loc	0 2718 33                       ; ggml/src/ggml-cpu/ggml-cpu.c:2718:33
	ldur	x8, [x29, #-80]
	add	x8, x8, x9
	stur	x8, [x29, #-80]
	.loc	0 2719 25 is_stmt 1             ; ggml/src/ggml-cpu/ggml-cpu.c:2719:25
	b	LBB31_36
Ltmp383:
LBB31_36:                               ;   in Loop: Header=BB31_8 Depth=1
	;DEBUG_VALUE: ggml_graph_plan:cplan <- [DW_OP_plus_uconst 56, DW_OP_deref] [$sp+0]
	.loc	0 2721 32                       ; ggml/src/ggml-cpu/ggml-cpu.c:2721:32
	ldursw	x8, [x29, #-120]
	.loc	0 2721 37 is_stmt 0             ; ggml/src/ggml-cpu/ggml-cpu.c:2721:37
	lsl	x8, x8, #3
	.loc	0 2721 55                       ; ggml/src/ggml-cpu/ggml-cpu.c:2721:55
	add	x9, x8, #8
	.loc	0 2721 29                       ; ggml/src/ggml-cpu/ggml-cpu.c:2721:29
	ldur	x8, [x29, #-80]
	add	x8, x8, x9
	stur	x8, [x29, #-80]
	.loc	0 2723 32 is_stmt 1             ; ggml/src/ggml-cpu/ggml-cpu.c:2723:32
	ldursw	x8, [x29, #-120]
	.loc	0 2723 37 is_stmt 0             ; ggml/src/ggml-cpu/ggml-cpu.c:2723:37
	ldur	x9, [x29, #-112]
	ldr	x9, [x9, #16]
	.loc	0 2723 36                       ; ggml/src/ggml-cpu/ggml-cpu.c:2723:36
	mul	x8, x8, x9
	.loc	0 2723 48                       ; ggml/src/ggml-cpu/ggml-cpu.c:2723:48
	ldur	x9, [x29, #-112]
	ldr	x9, [x9, #24]
	.loc	0 2723 47                       ; ggml/src/ggml-cpu/ggml-cpu.c:2723:47
	mul	x8, x8, x9
	.loc	0 2723 58                       ; ggml/src/ggml-cpu/ggml-cpu.c:2723:58
	lsl	x8, x8, #3
	.loc	0 2723 91                       ; ggml/src/ggml-cpu/ggml-cpu.c:2723:91
	add	x9, x8, #8
	.loc	0 2723 29                       ; ggml/src/ggml-cpu/ggml-cpu.c:2723:29
	ldur	x8, [x29, #-80]
	add	x8, x8, x9
	stur	x8, [x29, #-80]
	.loc	0 2725 48 is_stmt 1             ; ggml/src/ggml-cpu/ggml-cpu.c:2725:48
	ldur	w9, [x29, #-120]
	mov	w8, #64                         ; =0x40
	.loc	0 2725 47 is_stmt 0             ; ggml/src/ggml-cpu/ggml-cpu.c:2725:47
	mul	w8, w8, w9
	.loc	0 2725 53                       ; ggml/src/ggml-cpu/ggml-cpu.c:2725:53
	add	w9, w8, #64
	.loc	0 2725 29                       ; ggml/src/ggml-cpu/ggml-cpu.c:2725:29
	ldur	x8, [x29, #-80]
	add	x8, x8, w9, sxtw
	stur	x8, [x29, #-80]
Ltmp384:
	.loc	0 2726 23 is_stmt 1             ; ggml/src/ggml-cpu/ggml-cpu.c:2726:23
	b	LBB31_74
Ltmp385:
LBB31_37:                               ;   in Loop: Header=BB31_8 Depth=1
	;DEBUG_VALUE: ggml_graph_plan:cplan <- [DW_OP_plus_uconst 56, DW_OP_deref] [$sp+0]
	.loc	0 2729 47                       ; ggml/src/ggml-cpu/ggml-cpu.c:2729:47
	ldur	x8, [x29, #-64]
	ldr	x8, [x8, #152]
	.loc	0 2729 61 is_stmt 0             ; ggml/src/ggml-cpu/ggml-cpu.c:2729:61
	ldr	w0, [x8]
	.loc	0 2729 29                       ; ggml/src/ggml-cpu/ggml-cpu.c:2729:29
	bl	_ggml_is_quantized
Ltmp386:
	.loc	0 2729 29                       ; ggml/src/ggml-cpu/ggml-cpu.c:2729:29
	tbz	w0, #0, LBB31_39
	b	LBB31_38
Ltmp387:
LBB31_38:                               ;   in Loop: Header=BB31_8 Depth=1
	;DEBUG_VALUE: ggml_graph_plan:cplan <- [DW_OP_plus_uconst 56, DW_OP_deref] [$sp+0]
	.loc	0 2730 35 is_stmt 1             ; ggml/src/ggml-cpu/ggml-cpu.c:2730:35
	mov	w0, #0                          ; =0x0
	bl	_ggml_type_size
	.loc	0 2730 67 is_stmt 0             ; ggml/src/ggml-cpu/ggml-cpu.c:2730:67
	ldur	x8, [x29, #-64]
	ldr	x8, [x8, #152]
	ldr	x8, [x8, #16]
	.loc	0 2730 65                       ; ggml/src/ggml-cpu/ggml-cpu.c:2730:65
	mul	x8, x0, x8
	.loc	0 2730 89                       ; ggml/src/ggml-cpu/ggml-cpu.c:2730:89
	ldursw	x9, [x29, #-68]
	.loc	0 2730 87                       ; ggml/src/ggml-cpu/ggml-cpu.c:2730:87
	mul	x8, x8, x9
	.loc	0 2730 33                       ; ggml/src/ggml-cpu/ggml-cpu.c:2730:33
	stur	x8, [x29, #-80]
	.loc	0 2731 25 is_stmt 1             ; ggml/src/ggml-cpu/ggml-cpu.c:2731:25
	b	LBB31_39
Ltmp388:
LBB31_39:                               ;   in Loop: Header=BB31_8 Depth=1
	;DEBUG_VALUE: ggml_graph_plan:cplan <- [DW_OP_plus_uconst 56, DW_OP_deref] [$sp+0]
	.loc	0 2732 23                       ; ggml/src/ggml-cpu/ggml-cpu.c:2732:23
	b	LBB31_74
Ltmp389:
LBB31_40:                               ;   in Loop: Header=BB31_8 Depth=1
	;DEBUG_VALUE: ggml_graph_plan:cplan <- [DW_OP_plus_uconst 56, DW_OP_deref] [$sp+0]
	.loc	0 2737 31                       ; ggml/src/ggml-cpu/ggml-cpu.c:2737:31
	mov	w0, #0                          ; =0x0
	bl	_ggml_type_size
	.loc	0 2737 63 is_stmt 0             ; ggml/src/ggml-cpu/ggml-cpu.c:2737:63
	ldur	x8, [x29, #-64]
	ldr	x8, [x8, #16]
	.loc	0 2737 61                       ; ggml/src/ggml-cpu/ggml-cpu.c:2737:61
	mul	x8, x0, x8
	.loc	0 2737 77                       ; ggml/src/ggml-cpu/ggml-cpu.c:2737:77
	ldursw	x9, [x29, #-68]
	.loc	0 2737 75                       ; ggml/src/ggml-cpu/ggml-cpu.c:2737:75
	mul	x8, x8, x9
	.loc	0 2737 29                       ; ggml/src/ggml-cpu/ggml-cpu.c:2737:29
	stur	x8, [x29, #-80]
Ltmp390:
	.loc	0 2738 23 is_stmt 1             ; ggml/src/ggml-cpu/ggml-cpu.c:2738:23
	b	LBB31_74
Ltmp391:
LBB31_41:                               ;   in Loop: Header=BB31_8 Depth=1
	;DEBUG_VALUE: ggml_graph_plan:cplan <- [DW_OP_plus_uconst 56, DW_OP_deref] [$sp+0]
	.loc	0 2741 25                       ; ggml/src/ggml-cpu/ggml-cpu.c:2741:25
	ldur	x8, [x29, #-64]
	ldr	x8, [x8, #152]
	ldr	x8, [x8, #40]
Ltmp392:
	.loc	0 2741 25 is_stmt 0             ; ggml/src/ggml-cpu/ggml-cpu.c:2741:25
	subs	x8, x8, #1
	b.eq	LBB31_43
	b	LBB31_42
Ltmp393:
LBB31_42:
	;DEBUG_VALUE: ggml_graph_plan:cplan <- [DW_OP_plus_uconst 56, DW_OP_deref] [$sp+0]
	.loc	0 2741 25                       ; ggml/src/ggml-cpu/ggml-cpu.c:2741:25
	mov	x9, sp
	adrp	x8, l_.str.12@PAGE
	add	x8, x8, l_.str.12@PAGEOFF
	str	x8, [x9]
	adrp	x0, l_.str.1@PAGE
	add	x0, x0, l_.str.1@PAGEOFF
	mov	w1, #2741                       ; =0xab5
	adrp	x2, l_.str.2@PAGE
	add	x2, x2, l_.str.2@PAGEOFF
	bl	_ggml_abort
Ltmp394:
LBB31_43:                               ;   in Loop: Header=BB31_8 Depth=1
	;DEBUG_VALUE: ggml_graph_plan:cplan <- [DW_OP_plus_uconst 56, DW_OP_deref] [$sp+0]
	.loc	0 2742 25 is_stmt 1             ; ggml/src/ggml-cpu/ggml-cpu.c:2742:25
	ldur	x8, [x29, #-64]
	ldr	x8, [x8, #160]
	ldr	x8, [x8, #32]
Ltmp395:
	.loc	0 2742 25 is_stmt 0             ; ggml/src/ggml-cpu/ggml-cpu.c:2742:25
	subs	x8, x8, #1
	b.eq	LBB31_45
	b	LBB31_44
Ltmp396:
LBB31_44:
	;DEBUG_VALUE: ggml_graph_plan:cplan <- [DW_OP_plus_uconst 56, DW_OP_deref] [$sp+0]
	.loc	0 2742 25                       ; ggml/src/ggml-cpu/ggml-cpu.c:2742:25
	mov	x9, sp
	adrp	x8, l_.str.13@PAGE
	add	x8, x8, l_.str.13@PAGEOFF
	str	x8, [x9]
	adrp	x0, l_.str.1@PAGE
	add	x0, x0, l_.str.1@PAGEOFF
	mov	w1, #2742                       ; =0xab6
	adrp	x2, l_.str.2@PAGE
	add	x2, x2, l_.str.2@PAGEOFF
	bl	_ggml_abort
Ltmp397:
LBB31_45:                               ;   in Loop: Header=BB31_8 Depth=1
	;DEBUG_VALUE: ggml_graph_plan:cplan <- [DW_OP_plus_uconst 56, DW_OP_deref] [$sp+0]
	.loc	0 2743 25 is_stmt 1             ; ggml/src/ggml-cpu/ggml-cpu.c:2743:25
	ldur	x8, [x29, #-64]
	ldr	x8, [x8, #160]
	ldr	x8, [x8, #40]
Ltmp398:
	.loc	0 2743 25 is_stmt 0             ; ggml/src/ggml-cpu/ggml-cpu.c:2743:25
	subs	x8, x8, #1
	b.eq	LBB31_47
	b	LBB31_46
Ltmp399:
LBB31_46:
	;DEBUG_VALUE: ggml_graph_plan:cplan <- [DW_OP_plus_uconst 56, DW_OP_deref] [$sp+0]
	.loc	0 2743 25                       ; ggml/src/ggml-cpu/ggml-cpu.c:2743:25
	mov	x9, sp
	adrp	x8, l_.str.14@PAGE
	add	x8, x8, l_.str.14@PAGEOFF
	str	x8, [x9]
	adrp	x0, l_.str.1@PAGE
	add	x0, x0, l_.str.1@PAGEOFF
	mov	w1, #2743                       ; =0xab7
	adrp	x2, l_.str.2@PAGE
	add	x2, x2, l_.str.2@PAGEOFF
	bl	_ggml_abort
Ltmp400:
LBB31_47:                               ;   in Loop: Header=BB31_8 Depth=1
	;DEBUG_VALUE: ggml_graph_plan:cplan <- [DW_OP_plus_uconst 56, DW_OP_deref] [$sp+0]
	.loc	0 2745 46 is_stmt 1             ; ggml/src/ggml-cpu/ggml-cpu.c:2745:46
	ldur	x8, [x29, #-64]
	ldr	x8, [x8, #152]
	ldr	x8, [x8, #16]
	.loc	0 2745 39 is_stmt 0             ; ggml/src/ggml-cpu/ggml-cpu.c:2745:39
	stur	x8, [x29, #-128]
	.loc	0 2746 46 is_stmt 1             ; ggml/src/ggml-cpu/ggml-cpu.c:2746:46
	ldur	x8, [x29, #-64]
	ldr	x8, [x8, #152]
	ldr	x8, [x8, #24]
	.loc	0 2746 39 is_stmt 0             ; ggml/src/ggml-cpu/ggml-cpu.c:2746:39
	stur	x8, [x29, #-136]
	.loc	0 2747 46 is_stmt 1             ; ggml/src/ggml-cpu/ggml-cpu.c:2747:46
	ldur	x8, [x29, #-64]
	ldr	x8, [x8, #152]
	ldr	x8, [x8, #32]
	.loc	0 2747 39 is_stmt 0             ; ggml/src/ggml-cpu/ggml-cpu.c:2747:39
	stur	x8, [x29, #-144]
	.loc	0 2748 46 is_stmt 1             ; ggml/src/ggml-cpu/ggml-cpu.c:2748:46
	ldur	x8, [x29, #-64]
	ldr	x8, [x8, #160]
	ldr	x8, [x8, #16]
	.loc	0 2748 39 is_stmt 0             ; ggml/src/ggml-cpu/ggml-cpu.c:2748:39
	stur	x8, [x29, #-152]
	.loc	0 2749 46 is_stmt 1             ; ggml/src/ggml-cpu/ggml-cpu.c:2749:46
	ldur	x8, [x29, #-64]
	ldr	x8, [x8, #160]
	ldr	x8, [x8, #24]
	.loc	0 2749 39 is_stmt 0             ; ggml/src/ggml-cpu/ggml-cpu.c:2749:39
	str	x8, [sp, #160]
Ltmp401:
	.loc	0 2751 30 is_stmt 1             ; ggml/src/ggml-cpu/ggml-cpu.c:2751:30
	ldur	x8, [x29, #-64]
	ldr	x8, [x8, #152]
	.loc	0 2751 44 is_stmt 0             ; ggml/src/ggml-cpu/ggml-cpu.c:2751:44
	ldr	w8, [x8]
	.loc	0 2751 66                       ; ggml/src/ggml-cpu/ggml-cpu.c:2751:66
	subs	w8, w8, #1
	b.eq	LBB31_49
	b	LBB31_48
Ltmp402:
LBB31_48:                               ;   in Loop: Header=BB31_8 Depth=1
	;DEBUG_VALUE: ggml_graph_plan:cplan <- [DW_OP_plus_uconst 56, DW_OP_deref] [$sp+0]
	.loc	0 2752 30 is_stmt 1             ; ggml/src/ggml-cpu/ggml-cpu.c:2752:30
	ldur	x8, [x29, #-64]
	ldr	x8, [x8, #152]
	.loc	0 2752 44 is_stmt 0             ; ggml/src/ggml-cpu/ggml-cpu.c:2752:44
	ldr	w8, [x8]
	.loc	0 2752 68                       ; ggml/src/ggml-cpu/ggml-cpu.c:2752:68
	subs	w8, w8, #30
	b.ne	LBB31_51
	b	LBB31_49
Ltmp403:
LBB31_49:                               ;   in Loop: Header=BB31_8 Depth=1
	;DEBUG_VALUE: ggml_graph_plan:cplan <- [DW_OP_plus_uconst 56, DW_OP_deref] [$sp+0]
	.loc	0 2753 29 is_stmt 1             ; ggml/src/ggml-cpu/ggml-cpu.c:2753:29
	ldur	x8, [x29, #-64]
	ldr	x8, [x8, #160]
	.loc	0 2753 43 is_stmt 0             ; ggml/src/ggml-cpu/ggml-cpu.c:2753:43
	ldr	w8, [x8]
Ltmp404:
	.loc	0 2751 29 is_stmt 1             ; ggml/src/ggml-cpu/ggml-cpu.c:2751:29
	cbnz	w8, LBB31_51
	b	LBB31_50
Ltmp405:
LBB31_50:                               ;   in Loop: Header=BB31_8 Depth=1
	;DEBUG_VALUE: ggml_graph_plan:cplan <- [DW_OP_plus_uconst 56, DW_OP_deref] [$sp+0]
	.loc	0 2754 56                       ; ggml/src/ggml-cpu/ggml-cpu.c:2754:56
	ldur	x9, [x29, #-128]
	mov	x8, #2                          ; =0x2
	.loc	0 2754 55 is_stmt 0             ; ggml/src/ggml-cpu/ggml-cpu.c:2754:55
	mul	x9, x8, x9
	.loc	0 2754 61                       ; ggml/src/ggml-cpu/ggml-cpu.c:2754:61
	ldur	x10, [x29, #-136]
	.loc	0 2754 60                       ; ggml/src/ggml-cpu/ggml-cpu.c:2754:60
	mul	x9, x9, x10
	.loc	0 2754 66                       ; ggml/src/ggml-cpu/ggml-cpu.c:2754:66
	ldur	x10, [x29, #-144]
	.loc	0 2754 65                       ; ggml/src/ggml-cpu/ggml-cpu.c:2754:65
	mul	x10, x9, x10
	.loc	0 2754 33                       ; ggml/src/ggml-cpu/ggml-cpu.c:2754:33
	ldur	x9, [x29, #-80]
	add	x9, x9, x10
	stur	x9, [x29, #-80]
	.loc	0 2755 56 is_stmt 1             ; ggml/src/ggml-cpu/ggml-cpu.c:2755:56
	ldur	x9, [x29, #-152]
	.loc	0 2755 55 is_stmt 0             ; ggml/src/ggml-cpu/ggml-cpu.c:2755:55
	mul	x8, x8, x9
	.loc	0 2755 61                       ; ggml/src/ggml-cpu/ggml-cpu.c:2755:61
	ldr	x9, [sp, #160]
	.loc	0 2755 60                       ; ggml/src/ggml-cpu/ggml-cpu.c:2755:60
	mul	x9, x8, x9
	.loc	0 2755 33                       ; ggml/src/ggml-cpu/ggml-cpu.c:2755:33
	ldur	x8, [x29, #-80]
	add	x8, x8, x9
	stur	x8, [x29, #-80]
	.loc	0 2756 25 is_stmt 1             ; ggml/src/ggml-cpu/ggml-cpu.c:2756:25
	b	LBB31_56
Ltmp406:
LBB31_51:                               ;   in Loop: Header=BB31_8 Depth=1
	;DEBUG_VALUE: ggml_graph_plan:cplan <- [DW_OP_plus_uconst 56, DW_OP_deref] [$sp+0]
	.loc	0 2756 36 is_stmt 0             ; ggml/src/ggml-cpu/ggml-cpu.c:2756:36
	ldur	x8, [x29, #-64]
	ldr	x8, [x8, #152]
	.loc	0 2756 50                       ; ggml/src/ggml-cpu/ggml-cpu.c:2756:50
	ldr	w8, [x8]
	.loc	0 2756 72                       ; ggml/src/ggml-cpu/ggml-cpu.c:2756:72
	cbnz	w8, LBB31_54
	b	LBB31_52
Ltmp407:
LBB31_52:                               ;   in Loop: Header=BB31_8 Depth=1
	;DEBUG_VALUE: ggml_graph_plan:cplan <- [DW_OP_plus_uconst 56, DW_OP_deref] [$sp+0]
	.loc	0 2757 36 is_stmt 1             ; ggml/src/ggml-cpu/ggml-cpu.c:2757:36
	ldur	x8, [x29, #-64]
	ldr	x8, [x8, #160]
	.loc	0 2757 50 is_stmt 0             ; ggml/src/ggml-cpu/ggml-cpu.c:2757:50
	ldr	w8, [x8]
Ltmp408:
	.loc	0 2756 36 is_stmt 1             ; ggml/src/ggml-cpu/ggml-cpu.c:2756:36
	cbnz	w8, LBB31_54
	b	LBB31_53
Ltmp409:
LBB31_53:                               ;   in Loop: Header=BB31_8 Depth=1
	;DEBUG_VALUE: ggml_graph_plan:cplan <- [DW_OP_plus_uconst 56, DW_OP_deref] [$sp+0]
	.loc	0 2758 50                       ; ggml/src/ggml-cpu/ggml-cpu.c:2758:50
	ldur	x9, [x29, #-128]
	mov	x8, #4                          ; =0x4
	.loc	0 2758 49 is_stmt 0             ; ggml/src/ggml-cpu/ggml-cpu.c:2758:49
	mul	x9, x8, x9
	.loc	0 2758 55                       ; ggml/src/ggml-cpu/ggml-cpu.c:2758:55
	ldur	x10, [x29, #-136]
	.loc	0 2758 54                       ; ggml/src/ggml-cpu/ggml-cpu.c:2758:54
	mul	x9, x9, x10
	.loc	0 2758 60                       ; ggml/src/ggml-cpu/ggml-cpu.c:2758:60
	ldur	x10, [x29, #-144]
	.loc	0 2758 59                       ; ggml/src/ggml-cpu/ggml-cpu.c:2758:59
	mul	x10, x9, x10
	.loc	0 2758 33                       ; ggml/src/ggml-cpu/ggml-cpu.c:2758:33
	ldur	x9, [x29, #-80]
	add	x9, x9, x10
	stur	x9, [x29, #-80]
	.loc	0 2759 50 is_stmt 1             ; ggml/src/ggml-cpu/ggml-cpu.c:2759:50
	ldur	x9, [x29, #-152]
	.loc	0 2759 49 is_stmt 0             ; ggml/src/ggml-cpu/ggml-cpu.c:2759:49
	mul	x8, x8, x9
	.loc	0 2759 55                       ; ggml/src/ggml-cpu/ggml-cpu.c:2759:55
	ldr	x9, [sp, #160]
	.loc	0 2759 54                       ; ggml/src/ggml-cpu/ggml-cpu.c:2759:54
	mul	x9, x8, x9
	.loc	0 2759 33                       ; ggml/src/ggml-cpu/ggml-cpu.c:2759:33
	ldur	x8, [x29, #-80]
	add	x8, x8, x9
	stur	x8, [x29, #-80]
	.loc	0 2760 25 is_stmt 1             ; ggml/src/ggml-cpu/ggml-cpu.c:2760:25
	b	LBB31_55
Ltmp410:
LBB31_54:
	;DEBUG_VALUE: ggml_graph_plan:cplan <- [DW_OP_plus_uconst 56, DW_OP_deref] [$sp+0]
	.loc	0 2761 29                       ; ggml/src/ggml-cpu/ggml-cpu.c:2761:29
	adrp	x0, l_.str.1@PAGE
	add	x0, x0, l_.str.1@PAGEOFF
	mov	w1, #2761                       ; =0xac9
	adrp	x2, l_.str.4@PAGE
	add	x2, x2, l_.str.4@PAGEOFF
	bl	_ggml_abort
Ltmp411:
LBB31_55:                               ;   in Loop: Header=BB31_8 Depth=1
	;DEBUG_VALUE: ggml_graph_plan:cplan <- [DW_OP_plus_uconst 56, DW_OP_deref] [$sp+0]
	.loc	0 0 29 is_stmt 0                ; ggml/src/ggml-cpu/ggml-cpu.c:0:29
	b	LBB31_56
Ltmp412:
LBB31_56:                               ;   in Loop: Header=BB31_8 Depth=1
	;DEBUG_VALUE: ggml_graph_plan:cplan <- [DW_OP_plus_uconst 56, DW_OP_deref] [$sp+0]
	.loc	0 2763 23 is_stmt 1             ; ggml/src/ggml-cpu/ggml-cpu.c:2763:23
	b	LBB31_74
Ltmp413:
LBB31_57:                               ;   in Loop: Header=BB31_8 Depth=1
	;DEBUG_VALUE: ggml_graph_plan:cplan <- [DW_OP_plus_uconst 56, DW_OP_deref] [$sp+0]
	.loc	0 2766 46                       ; ggml/src/ggml-cpu/ggml-cpu.c:2766:46
	ldur	x8, [x29, #-64]
	ldr	x8, [x8, #152]
	ldr	x8, [x8, #16]
	.loc	0 2766 39 is_stmt 0             ; ggml/src/ggml-cpu/ggml-cpu.c:2766:39
	str	x8, [sp, #152]
	.loc	0 2767 46 is_stmt 1             ; ggml/src/ggml-cpu/ggml-cpu.c:2767:46
	ldur	x8, [x29, #-64]
	ldr	x8, [x8, #152]
	ldr	x8, [x8, #24]
	.loc	0 2767 39 is_stmt 0             ; ggml/src/ggml-cpu/ggml-cpu.c:2767:39
	str	x8, [sp, #144]
	.loc	0 2768 46 is_stmt 1             ; ggml/src/ggml-cpu/ggml-cpu.c:2768:46
	ldur	x8, [x29, #-64]
	ldr	x8, [x8, #152]
	ldr	x8, [x8, #32]
	.loc	0 2768 39 is_stmt 0             ; ggml/src/ggml-cpu/ggml-cpu.c:2768:39
	str	x8, [sp, #136]
	.loc	0 2769 46 is_stmt 1             ; ggml/src/ggml-cpu/ggml-cpu.c:2769:46
	ldur	x8, [x29, #-64]
	ldr	x8, [x8, #152]
	ldr	x8, [x8, #40]
	.loc	0 2769 39 is_stmt 0             ; ggml/src/ggml-cpu/ggml-cpu.c:2769:39
	str	x8, [sp, #128]
	.loc	0 2771 46 is_stmt 1             ; ggml/src/ggml-cpu/ggml-cpu.c:2771:46
	ldur	x8, [x29, #-64]
	ldr	x8, [x8, #160]
	ldr	x8, [x8, #16]
	.loc	0 2771 39 is_stmt 0             ; ggml/src/ggml-cpu/ggml-cpu.c:2771:39
	str	x8, [sp, #120]
	.loc	0 2772 46 is_stmt 1             ; ggml/src/ggml-cpu/ggml-cpu.c:2772:46
	ldur	x8, [x29, #-64]
	ldr	x8, [x8, #160]
	ldr	x8, [x8, #24]
	.loc	0 2772 39 is_stmt 0             ; ggml/src/ggml-cpu/ggml-cpu.c:2772:39
	str	x8, [sp, #112]
	.loc	0 2773 46 is_stmt 1             ; ggml/src/ggml-cpu/ggml-cpu.c:2773:46
	ldur	x8, [x29, #-64]
	ldr	x8, [x8, #160]
	ldr	x8, [x8, #32]
	.loc	0 2773 39 is_stmt 0             ; ggml/src/ggml-cpu/ggml-cpu.c:2773:39
	str	x8, [sp, #104]
	.loc	0 2775 52 is_stmt 1             ; ggml/src/ggml-cpu/ggml-cpu.c:2775:52
	ldr	x9, [sp, #152]
	mov	x8, #2                          ; =0x2
	.loc	0 2775 51 is_stmt 0             ; ggml/src/ggml-cpu/ggml-cpu.c:2775:51
	mul	x9, x8, x9
	.loc	0 2775 57                       ; ggml/src/ggml-cpu/ggml-cpu.c:2775:57
	ldr	x10, [sp, #144]
	.loc	0 2775 56                       ; ggml/src/ggml-cpu/ggml-cpu.c:2775:56
	mul	x9, x9, x10
	.loc	0 2775 62                       ; ggml/src/ggml-cpu/ggml-cpu.c:2775:62
	ldr	x10, [sp, #136]
	.loc	0 2775 61                       ; ggml/src/ggml-cpu/ggml-cpu.c:2775:61
	mul	x9, x9, x10
	.loc	0 2775 67                       ; ggml/src/ggml-cpu/ggml-cpu.c:2775:67
	ldr	x10, [sp, #128]
	.loc	0 2775 66                       ; ggml/src/ggml-cpu/ggml-cpu.c:2775:66
	mul	x10, x9, x10
	.loc	0 2775 29                       ; ggml/src/ggml-cpu/ggml-cpu.c:2775:29
	ldur	x9, [x29, #-80]
	add	x9, x9, x10
	stur	x9, [x29, #-80]
	.loc	0 2776 52 is_stmt 1             ; ggml/src/ggml-cpu/ggml-cpu.c:2776:52
	ldr	x9, [sp, #120]
	.loc	0 2776 51 is_stmt 0             ; ggml/src/ggml-cpu/ggml-cpu.c:2776:51
	mul	x8, x8, x9
	.loc	0 2776 57                       ; ggml/src/ggml-cpu/ggml-cpu.c:2776:57
	ldr	x9, [sp, #112]
	.loc	0 2776 56                       ; ggml/src/ggml-cpu/ggml-cpu.c:2776:56
	mul	x8, x8, x9
	.loc	0 2776 62                       ; ggml/src/ggml-cpu/ggml-cpu.c:2776:62
	ldr	x9, [sp, #104]
	.loc	0 2776 61                       ; ggml/src/ggml-cpu/ggml-cpu.c:2776:61
	mul	x9, x8, x9
	.loc	0 2776 29                       ; ggml/src/ggml-cpu/ggml-cpu.c:2776:29
	ldur	x8, [x29, #-80]
	add	x8, x8, x9
	stur	x8, [x29, #-80]
Ltmp414:
	.loc	0 2777 23 is_stmt 1             ; ggml/src/ggml-cpu/ggml-cpu.c:2777:23
	b	LBB31_74
Ltmp415:
LBB31_58:                               ;   in Loop: Header=BB31_8 Depth=1
	;DEBUG_VALUE: ggml_graph_plan:cplan <- [DW_OP_plus_uconst 56, DW_OP_deref] [$sp+0]
	.loc	0 2780 46                       ; ggml/src/ggml-cpu/ggml-cpu.c:2780:46
	ldur	x8, [x29, #-64]
	ldr	x8, [x8, #160]
	ldr	x8, [x8, #16]
	.loc	0 2780 39 is_stmt 0             ; ggml/src/ggml-cpu/ggml-cpu.c:2780:39
	str	x8, [sp, #96]
	.loc	0 2781 46 is_stmt 1             ; ggml/src/ggml-cpu/ggml-cpu.c:2781:46
	ldur	x8, [x29, #-64]
	ldr	x8, [x8, #168]
	ldr	x8, [x8, #16]
	.loc	0 2781 39 is_stmt 0             ; ggml/src/ggml-cpu/ggml-cpu.c:2781:39
	str	x8, [sp, #88]
	.loc	0 2783 48 is_stmt 1             ; ggml/src/ggml-cpu/ggml-cpu.c:2783:48
	ldr	x9, [sp, #96]
	.loc	0 2783 47 is_stmt 0             ; ggml/src/ggml-cpu/ggml-cpu.c:2783:47
	mov	x8, #1                          ; =0x1
	mul	x8, x8, x9
	.loc	0 2783 57                       ; ggml/src/ggml-cpu/ggml-cpu.c:2783:57
	ldr	x10, [sp, #88]
	.loc	0 2783 56                       ; ggml/src/ggml-cpu/ggml-cpu.c:2783:56
	mov	x9, #2                          ; =0x2
	mul	x9, x9, x10
	.loc	0 2783 53                       ; ggml/src/ggml-cpu/ggml-cpu.c:2783:53
	add	x9, x8, x9
	.loc	0 2783 44                       ; ggml/src/ggml-cpu/ggml-cpu.c:2783:44
	mov	x8, #4                          ; =0x4
	mul	x8, x8, x9
	.loc	0 2783 63                       ; ggml/src/ggml-cpu/ggml-cpu.c:2783:63
	ldursw	x9, [x29, #-68]
	.loc	0 2783 62                       ; ggml/src/ggml-cpu/ggml-cpu.c:2783:62
	mul	x8, x8, x9
	.loc	0 2783 29                       ; ggml/src/ggml-cpu/ggml-cpu.c:2783:29
	stur	x8, [x29, #-80]
Ltmp416:
	.loc	0 2784 23 is_stmt 1             ; ggml/src/ggml-cpu/ggml-cpu.c:2784:23
	b	LBB31_74
Ltmp417:
LBB31_59:                               ;   in Loop: Header=BB31_8 Depth=1
	;DEBUG_VALUE: ggml_graph_plan:cplan <- [DW_OP_plus_uconst 56, DW_OP_deref] [$sp+0]
	.loc	0 2787 46                       ; ggml/src/ggml-cpu/ggml-cpu.c:2787:46
	ldur	x8, [x29, #-64]
	ldr	x8, [x8, #152]
	ldr	x8, [x8, #16]
	.loc	0 2787 42 is_stmt 0             ; ggml/src/ggml-cpu/ggml-cpu.c:2787:42
	str	x8, [sp, #80]
	.loc	0 2788 54 is_stmt 1             ; ggml/src/ggml-cpu/ggml-cpu.c:2788:54
	ldur	x8, [x29, #-64]
	ldr	x8, [x8, #160]
	ldr	x8, [x8, #24]
	mov	x0, x8
	.loc	0 2788 46 is_stmt 0             ; ggml/src/ggml-cpu/ggml-cpu.c:2788:46
	mov	w1, #4                          ; =0x4
	bl	_ggml_up
                                        ; implicit-def: $x8
	mov	x8, x0
	sxtw	x8, w8
	.loc	0 2788 39                       ; ggml/src/ggml-cpu/ggml-cpu.c:2788:39
	str	x8, [sp, #72]
	.loc	0 2789 46 is_stmt 1             ; ggml/src/ggml-cpu/ggml-cpu.c:2789:46
	ldr	x8, [sp, #80]
	ldr	x9, [sp, #72]
	subs	x8, x8, x9
	b.le	LBB31_61
	b	LBB31_60
Ltmp418:
LBB31_60:                               ;   in Loop: Header=BB31_8 Depth=1
	;DEBUG_VALUE: ggml_graph_plan:cplan <- [DW_OP_plus_uconst 56, DW_OP_deref] [$sp+0]
	ldr	x8, [sp, #80]
	str	x8, [sp, #24]                   ; 8-byte Folded Spill
	b	LBB31_62
Ltmp419:
LBB31_61:                               ;   in Loop: Header=BB31_8 Depth=1
	;DEBUG_VALUE: ggml_graph_plan:cplan <- [DW_OP_plus_uconst 56, DW_OP_deref] [$sp+0]
	ldr	x8, [sp, #72]
	str	x8, [sp, #24]                   ; 8-byte Folded Spill
	b	LBB31_62
Ltmp420:
LBB31_62:                               ;   in Loop: Header=BB31_8 Depth=1
	;DEBUG_VALUE: ggml_graph_plan:cplan <- [DW_OP_plus_uconst 56, DW_OP_deref] [$sp+0]
	.loc	0 0 46 is_stmt 0                ; ggml/src/ggml-cpu/ggml-cpu.c:0:46
	ldr	x8, [sp, #24]                   ; 8-byte Folded Reload
	.loc	0 2789 59                       ; ggml/src/ggml-cpu/ggml-cpu.c:2789:59
	lsl	x8, x8, #1
	.loc	0 2789 39                       ; ggml/src/ggml-cpu/ggml-cpu.c:2789:39
	str	x8, [sp, #64]
Ltmp421:
	.loc	0 2790 29 is_stmt 1             ; ggml/src/ggml-cpu/ggml-cpu.c:2790:29
	ldur	x8, [x29, #-64]
	ldr	x8, [x8, #160]
	.loc	0 2790 43 is_stmt 0             ; ggml/src/ggml-cpu/ggml-cpu.c:2790:43
	ldr	w8, [x8]
Ltmp422:
	.loc	0 2790 29                       ; ggml/src/ggml-cpu/ggml-cpu.c:2790:29
	cbnz	w8, LBB31_64
	b	LBB31_63
Ltmp423:
LBB31_63:                               ;   in Loop: Header=BB31_8 Depth=1
	;DEBUG_VALUE: ggml_graph_plan:cplan <- [DW_OP_plus_uconst 56, DW_OP_deref] [$sp+0]
	.loc	0 2791 50 is_stmt 1             ; ggml/src/ggml-cpu/ggml-cpu.c:2791:50
	ldr	x9, [sp, #64]
	mov	x8, #4                          ; =0x4
	.loc	0 2791 49 is_stmt 0             ; ggml/src/ggml-cpu/ggml-cpu.c:2791:49
	mul	x9, x8, x9
	.loc	0 2791 55                       ; ggml/src/ggml-cpu/ggml-cpu.c:2791:55
	ldursw	x10, [x29, #-68]
	.loc	0 2791 54                       ; ggml/src/ggml-cpu/ggml-cpu.c:2791:54
	mul	x9, x9, x10
	.loc	0 2791 34                       ; ggml/src/ggml-cpu/ggml-cpu.c:2791:34
	stur	x9, [x29, #-80]
	.loc	0 2792 50 is_stmt 1             ; ggml/src/ggml-cpu/ggml-cpu.c:2792:50
	ldr	x9, [sp, #64]
	.loc	0 2792 49 is_stmt 0             ; ggml/src/ggml-cpu/ggml-cpu.c:2792:49
	mul	x8, x8, x9
	.loc	0 2792 55                       ; ggml/src/ggml-cpu/ggml-cpu.c:2792:55
	ldursw	x9, [x29, #-68]
	.loc	0 2792 54                       ; ggml/src/ggml-cpu/ggml-cpu.c:2792:54
	mul	x9, x8, x9
	.loc	0 2792 33                       ; ggml/src/ggml-cpu/ggml-cpu.c:2792:33
	ldur	x8, [x29, #-80]
	add	x8, x8, x9
	stur	x8, [x29, #-80]
	.loc	0 2793 25 is_stmt 1             ; ggml/src/ggml-cpu/ggml-cpu.c:2793:25
	b	LBB31_70
Ltmp424:
LBB31_64:                               ;   in Loop: Header=BB31_8 Depth=1
	;DEBUG_VALUE: ggml_graph_plan:cplan <- [DW_OP_plus_uconst 56, DW_OP_deref] [$sp+0]
	.loc	0 2793 36 is_stmt 0             ; ggml/src/ggml-cpu/ggml-cpu.c:2793:36
	ldur	x8, [x29, #-64]
	ldr	x8, [x8, #160]
	.loc	0 2793 50                       ; ggml/src/ggml-cpu/ggml-cpu.c:2793:50
	ldr	w8, [x8]
Ltmp425:
	.loc	0 2793 36                       ; ggml/src/ggml-cpu/ggml-cpu.c:2793:36
	subs	w8, w8, #1
	b.ne	LBB31_66
	b	LBB31_65
Ltmp426:
LBB31_65:                               ;   in Loop: Header=BB31_8 Depth=1
	;DEBUG_VALUE: ggml_graph_plan:cplan <- [DW_OP_plus_uconst 56, DW_OP_deref] [$sp+0]
	.loc	0 2794 50 is_stmt 1             ; ggml/src/ggml-cpu/ggml-cpu.c:2794:50
	ldr	x9, [sp, #64]
	mov	x8, #4                          ; =0x4
	.loc	0 2794 49 is_stmt 0             ; ggml/src/ggml-cpu/ggml-cpu.c:2794:49
	mul	x9, x8, x9
	.loc	0 2794 55                       ; ggml/src/ggml-cpu/ggml-cpu.c:2794:55
	ldursw	x10, [x29, #-68]
	.loc	0 2794 54                       ; ggml/src/ggml-cpu/ggml-cpu.c:2794:54
	mul	x9, x9, x10
	.loc	0 2794 34                       ; ggml/src/ggml-cpu/ggml-cpu.c:2794:34
	stur	x9, [x29, #-80]
	.loc	0 2795 50 is_stmt 1             ; ggml/src/ggml-cpu/ggml-cpu.c:2795:50
	ldr	x9, [sp, #64]
	.loc	0 2795 49 is_stmt 0             ; ggml/src/ggml-cpu/ggml-cpu.c:2795:49
	mul	x8, x8, x9
	.loc	0 2795 55                       ; ggml/src/ggml-cpu/ggml-cpu.c:2795:55
	ldursw	x9, [x29, #-68]
	.loc	0 2795 54                       ; ggml/src/ggml-cpu/ggml-cpu.c:2795:54
	mul	x9, x8, x9
	.loc	0 2795 33                       ; ggml/src/ggml-cpu/ggml-cpu.c:2795:33
	ldur	x8, [x29, #-80]
	add	x8, x8, x9
	stur	x8, [x29, #-80]
	.loc	0 2796 25 is_stmt 1             ; ggml/src/ggml-cpu/ggml-cpu.c:2796:25
	b	LBB31_69
Ltmp427:
LBB31_66:                               ;   in Loop: Header=BB31_8 Depth=1
	;DEBUG_VALUE: ggml_graph_plan:cplan <- [DW_OP_plus_uconst 56, DW_OP_deref] [$sp+0]
	.loc	0 2796 36 is_stmt 0             ; ggml/src/ggml-cpu/ggml-cpu.c:2796:36
	ldur	x8, [x29, #-64]
	ldr	x8, [x8, #160]
	.loc	0 2796 50                       ; ggml/src/ggml-cpu/ggml-cpu.c:2796:50
	ldr	w8, [x8]
Ltmp428:
	.loc	0 2796 36                       ; ggml/src/ggml-cpu/ggml-cpu.c:2796:36
	subs	w8, w8, #30
	b.ne	LBB31_68
	b	LBB31_67
Ltmp429:
LBB31_67:                               ;   in Loop: Header=BB31_8 Depth=1
	;DEBUG_VALUE: ggml_graph_plan:cplan <- [DW_OP_plus_uconst 56, DW_OP_deref] [$sp+0]
	.loc	0 2797 50 is_stmt 1             ; ggml/src/ggml-cpu/ggml-cpu.c:2797:50
	ldr	x9, [sp, #64]
	mov	x8, #4                          ; =0x4
	.loc	0 2797 49 is_stmt 0             ; ggml/src/ggml-cpu/ggml-cpu.c:2797:49
	mul	x9, x8, x9
	.loc	0 2797 55                       ; ggml/src/ggml-cpu/ggml-cpu.c:2797:55
	ldursw	x10, [x29, #-68]
	.loc	0 2797 54                       ; ggml/src/ggml-cpu/ggml-cpu.c:2797:54
	mul	x9, x9, x10
	.loc	0 2797 34                       ; ggml/src/ggml-cpu/ggml-cpu.c:2797:34
	stur	x9, [x29, #-80]
	.loc	0 2798 50 is_stmt 1             ; ggml/src/ggml-cpu/ggml-cpu.c:2798:50
	ldr	x9, [sp, #64]
	.loc	0 2798 49 is_stmt 0             ; ggml/src/ggml-cpu/ggml-cpu.c:2798:49
	mul	x8, x8, x9
	.loc	0 2798 55                       ; ggml/src/ggml-cpu/ggml-cpu.c:2798:55
	ldursw	x9, [x29, #-68]
	.loc	0 2798 54                       ; ggml/src/ggml-cpu/ggml-cpu.c:2798:54
	mul	x9, x8, x9
	.loc	0 2798 33                       ; ggml/src/ggml-cpu/ggml-cpu.c:2798:33
	ldur	x8, [x29, #-80]
	add	x8, x8, x9
	stur	x8, [x29, #-80]
	.loc	0 2799 25 is_stmt 1             ; ggml/src/ggml-cpu/ggml-cpu.c:2799:25
	b	LBB31_68
Ltmp430:
LBB31_68:                               ;   in Loop: Header=BB31_8 Depth=1
	;DEBUG_VALUE: ggml_graph_plan:cplan <- [DW_OP_plus_uconst 56, DW_OP_deref] [$sp+0]
	.loc	0 0 25 is_stmt 0                ; ggml/src/ggml-cpu/ggml-cpu.c:0:25
	b	LBB31_69
Ltmp431:
LBB31_69:                               ;   in Loop: Header=BB31_8 Depth=1
	;DEBUG_VALUE: ggml_graph_plan:cplan <- [DW_OP_plus_uconst 56, DW_OP_deref] [$sp+0]
	b	LBB31_70
Ltmp432:
LBB31_70:                               ;   in Loop: Header=BB31_8 Depth=1
	;DEBUG_VALUE: ggml_graph_plan:cplan <- [DW_OP_plus_uconst 56, DW_OP_deref] [$sp+0]
	.loc	0 2800 23 is_stmt 1             ; ggml/src/ggml-cpu/ggml-cpu.c:2800:23
	b	LBB31_74
Ltmp433:
LBB31_71:                               ;   in Loop: Header=BB31_8 Depth=1
	;DEBUG_VALUE: ggml_graph_plan:cplan <- [DW_OP_plus_uconst 56, DW_OP_deref] [$sp+0]
	.loc	0 2804 46                       ; ggml/src/ggml-cpu/ggml-cpu.c:2804:46
	ldur	x8, [x29, #-64]
	.loc	0 2804 52 is_stmt 0             ; ggml/src/ggml-cpu/ggml-cpu.c:2804:52
	ldr	w0, [x8]
	.loc	0 2804 31                       ; ggml/src/ggml-cpu/ggml-cpu.c:2804:31
	bl	_ggml_type_size
	.loc	0 2804 59                       ; ggml/src/ggml-cpu/ggml-cpu.c:2804:59
	ldursw	x8, [x29, #-68]
	.loc	0 2804 69                       ; ggml/src/ggml-cpu/ggml-cpu.c:2804:69
	ldur	x9, [x29, #-64]
	ldr	x9, [x9, #152]
	ldr	x9, [x9, #16]
	.loc	0 2804 89                       ; ggml/src/ggml-cpu/ggml-cpu.c:2804:89
	ldursw	x10, [x29, #-68]
	.loc	0 2804 88                       ; ggml/src/ggml-cpu/ggml-cpu.c:2804:88
	mul	x9, x9, x10
	.loc	0 2804 67                       ; ggml/src/ggml-cpu/ggml-cpu.c:2804:67
	add	x8, x8, x9
	.loc	0 2804 57                       ; ggml/src/ggml-cpu/ggml-cpu.c:2804:57
	mul	x8, x0, x8
	.loc	0 2804 29                       ; ggml/src/ggml-cpu/ggml-cpu.c:2804:29
	stur	x8, [x29, #-80]
Ltmp434:
	.loc	0 2805 23 is_stmt 1             ; ggml/src/ggml-cpu/ggml-cpu.c:2805:23
	b	LBB31_74
Ltmp435:
LBB31_72:
	;DEBUG_VALUE: ggml_graph_plan:cplan <- [DW_OP_plus_uconst 56, DW_OP_deref] [$sp+0]
	.loc	0 2808 25                       ; ggml/src/ggml-cpu/ggml-cpu.c:2808:25
	adrp	x0, l_.str.1@PAGE
	add	x0, x0, l_.str.1@PAGEOFF
	mov	w1, #2808                       ; =0xaf8
	adrp	x2, l_.str.4@PAGE
	add	x2, x2, l_.str.4@PAGEOFF
	bl	_ggml_abort
Ltmp436:
LBB31_73:                               ;   in Loop: Header=BB31_8 Depth=1
	;DEBUG_VALUE: ggml_graph_plan:cplan <- [DW_OP_plus_uconst 56, DW_OP_deref] [$sp+0]
	.loc	0 2811 21                       ; ggml/src/ggml-cpu/ggml-cpu.c:2811:21
	b	LBB31_74
Ltmp437:
LBB31_74:                               ;   in Loop: Header=BB31_8 Depth=1
	;DEBUG_VALUE: ggml_graph_plan:cplan <- [DW_OP_plus_uconst 56, DW_OP_deref] [$sp+0]
	.loc	0 2813 9                        ; ggml/src/ggml-cpu/ggml-cpu.c:2813:9
	b	LBB31_75
Ltmp438:
LBB31_75:                               ;   in Loop: Header=BB31_8 Depth=1
	;DEBUG_VALUE: ggml_graph_plan:cplan <- [DW_OP_plus_uconst 56, DW_OP_deref] [$sp+0]
	.loc	0 2815 21                       ; ggml/src/ggml-cpu/ggml-cpu.c:2815:21
	ldur	x8, [x29, #-48]
	ldur	x9, [x29, #-80]
	subs	x8, x8, x9
	b.ls	LBB31_77
	b	LBB31_76
Ltmp439:
LBB31_76:                               ;   in Loop: Header=BB31_8 Depth=1
	;DEBUG_VALUE: ggml_graph_plan:cplan <- [DW_OP_plus_uconst 56, DW_OP_deref] [$sp+0]
	ldur	x8, [x29, #-48]
	str	x8, [sp, #16]                   ; 8-byte Folded Spill
	b	LBB31_78
Ltmp440:
LBB31_77:                               ;   in Loop: Header=BB31_8 Depth=1
	;DEBUG_VALUE: ggml_graph_plan:cplan <- [DW_OP_plus_uconst 56, DW_OP_deref] [$sp+0]
	ldur	x8, [x29, #-80]
	str	x8, [sp, #16]                   ; 8-byte Folded Spill
	b	LBB31_78
Ltmp441:
LBB31_78:                               ;   in Loop: Header=BB31_8 Depth=1
	;DEBUG_VALUE: ggml_graph_plan:cplan <- [DW_OP_plus_uconst 56, DW_OP_deref] [$sp+0]
	.loc	0 0 21 is_stmt 0                ; ggml/src/ggml-cpu/ggml-cpu.c:0:21
	ldr	x8, [sp, #16]                   ; 8-byte Folded Reload
	.loc	0 2815 19                       ; ggml/src/ggml-cpu/ggml-cpu.c:2815:19
	stur	x8, [x29, #-48]
	.loc	0 2816 5 is_stmt 1              ; ggml/src/ggml-cpu/ggml-cpu.c:2816:5
	b	LBB31_79
Ltmp442:
LBB31_79:                               ;   in Loop: Header=BB31_8 Depth=1
	;DEBUG_VALUE: ggml_graph_plan:cplan <- [DW_OP_plus_uconst 56, DW_OP_deref] [$sp+0]
	.loc	0 2662 43                       ; ggml/src/ggml-cpu/ggml-cpu.c:2662:43
	ldur	w8, [x29, #-56]
	add	w8, w8, #1
	stur	w8, [x29, #-56]
	.loc	0 2662 5 is_stmt 0              ; ggml/src/ggml-cpu/ggml-cpu.c:2662:5
	b	LBB31_8
Ltmp443:
LBB31_80:
	;DEBUG_VALUE: ggml_graph_plan:cplan <- [DW_OP_plus_uconst 56, DW_OP_deref] [$sp+0]
	.loc	0 2818 9 is_stmt 1              ; ggml/src/ggml-cpu/ggml-cpu.c:2818:9
	ldur	x8, [x29, #-48]
Ltmp444:
	.loc	0 2818 9 is_stmt 0              ; ggml/src/ggml-cpu/ggml-cpu.c:2818:9
	subs	x8, x8, #0
	b.ls	LBB31_82
	b	LBB31_81
Ltmp445:
LBB31_81:
	;DEBUG_VALUE: ggml_graph_plan:cplan <- [DW_OP_plus_uconst 56, DW_OP_deref] [$sp+0]
	.loc	0 2819 39 is_stmt 1             ; ggml/src/ggml-cpu/ggml-cpu.c:2819:39
	ldur	w9, [x29, #-28]
	.loc	0 2819 37 is_stmt 0             ; ggml/src/ggml-cpu/ggml-cpu.c:2819:37
	mov	w8, #64                         ; =0x40
	mul	w9, w8, w9
	.loc	0 2819 19                       ; ggml/src/ggml-cpu/ggml-cpu.c:2819:19
	ldur	x8, [x29, #-48]
	add	x8, x8, w9, sxtw
	stur	x8, [x29, #-48]
	.loc	0 2820 5 is_stmt 1              ; ggml/src/ggml-cpu/ggml-cpu.c:2820:5
	b	LBB31_82
Ltmp446:
LBB31_82:
	;DEBUG_VALUE: ggml_graph_plan:cplan <- [DW_OP_plus_uconst 56, DW_OP_deref] [$sp+0]
	.loc	0 0 5 is_stmt 0                 ; ggml/src/ggml-cpu/ggml-cpu.c:0:5
	ldr	x9, [sp, #56]                   ; 8-byte Folded Reload
	.loc	0 2822 24 is_stmt 1             ; ggml/src/ggml-cpu/ggml-cpu.c:2822:24
	ldur	x8, [x29, #-40]
	.loc	0 2822 22 is_stmt 0             ; ggml/src/ggml-cpu/ggml-cpu.c:2822:22
	str	x8, [x9, #24]
	.loc	0 2823 24 is_stmt 1             ; ggml/src/ggml-cpu/ggml-cpu.c:2823:24
	ldur	w8, [x29, #-52]
	ldur	w9, [x29, #-28]
	subs	w8, w8, w9
	b.ge	LBB31_84
	b	LBB31_83
Ltmp447:
LBB31_83:
	;DEBUG_VALUE: ggml_graph_plan:cplan <- [DW_OP_plus_uconst 56, DW_OP_deref] [$sp+0]
	ldur	w8, [x29, #-52]
	str	w8, [sp, #12]                   ; 4-byte Folded Spill
	b	LBB31_85
Ltmp448:
LBB31_84:
	;DEBUG_VALUE: ggml_graph_plan:cplan <- [DW_OP_plus_uconst 56, DW_OP_deref] [$sp+0]
	ldur	w8, [x29, #-28]
	str	w8, [sp, #12]                   ; 4-byte Folded Spill
	b	LBB31_85
Ltmp449:
LBB31_85:
	;DEBUG_VALUE: ggml_graph_plan:cplan <- [DW_OP_plus_uconst 56, DW_OP_deref] [$sp+0]
	.loc	0 0 24 is_stmt 0                ; ggml/src/ggml-cpu/ggml-cpu.c:0:24
	ldr	x8, [sp, #56]                   ; 8-byte Folded Reload
	ldr	w9, [sp, #12]                   ; 4-byte Folded Reload
	.loc	0 2823 22                       ; ggml/src/ggml-cpu/ggml-cpu.c:2823:22
	str	w9, [x8, #16]
	.loc	0 2824 24 is_stmt 1             ; ggml/src/ggml-cpu/ggml-cpu.c:2824:24
	ldur	x9, [x29, #-48]
	.loc	0 2824 22 is_stmt 0             ; ggml/src/ggml-cpu/ggml-cpu.c:2824:22
	str	x9, [x8]
                                        ; kill: def $x9 killed $xzr
	.loc	0 2825 22 is_stmt 1             ; ggml/src/ggml-cpu/ggml-cpu.c:2825:22
	str	xzr, [x8, #8]
	.loc	0 2827 5 epilogue_begin         ; ggml/src/ggml-cpu/ggml-cpu.c:2827:5
	ldp	x29, x30, [sp, #320]            ; 16-byte Folded Reload
	ldp	x28, x27, [sp, #304]            ; 16-byte Folded Reload
	add	sp, sp, #336
Ltmp450:
	ret
Ltmp451:
Lfunc_end31:
	.cfi_endproc
	.p2align	2
lJTI31_0:
	.long	LBB31_15-Ltmp353
	.long	LBB31_24-Ltmp353
	.long	LBB31_24-Ltmp353
	.long	LBB31_27-Ltmp353
	.long	LBB31_73-Ltmp353
	.long	LBB31_73-Ltmp353
	.long	LBB31_73-Ltmp353
	.long	LBB31_73-Ltmp353
	.long	LBB31_73-Ltmp353
	.long	LBB31_73-Ltmp353
	.long	LBB31_73-Ltmp353
	.long	LBB31_73-Ltmp353
	.long	LBB31_73-Ltmp353
	.long	LBB31_73-Ltmp353
	.long	LBB31_73-Ltmp353
	.long	LBB31_73-Ltmp353
	.long	LBB31_30-Ltmp353
	.long	LBB31_73-Ltmp353
	.long	LBB31_73-Ltmp353
	.long	LBB31_73-Ltmp353
	.long	LBB31_73-Ltmp353
	.long	LBB31_73-Ltmp353
	.long	LBB31_73-Ltmp353
	.long	LBB31_73-Ltmp353
	.long	LBB31_73-Ltmp353
	.long	LBB31_73-Ltmp353
	.long	LBB31_31-Ltmp353
	.long	LBB31_34-Ltmp353
	.long	LBB31_37-Ltmp353
	.long	LBB31_73-Ltmp353
	.long	LBB31_73-Ltmp353
	.long	LBB31_15-Ltmp353
	.long	LBB31_73-Ltmp353
	.long	LBB31_73-Ltmp353
	.long	LBB31_73-Ltmp353
	.long	LBB31_73-Ltmp353
	.long	LBB31_73-Ltmp353
	.long	LBB31_73-Ltmp353
	.long	LBB31_73-Ltmp353
	.long	LBB31_73-Ltmp353
	.long	LBB31_73-Ltmp353
	.long	LBB31_73-Ltmp353
	.long	LBB31_40-Ltmp353
	.long	LBB31_73-Ltmp353
	.long	LBB31_40-Ltmp353
	.long	LBB31_40-Ltmp353
	.long	LBB31_73-Ltmp353
	.long	LBB31_41-Ltmp353
	.long	LBB31_73-Ltmp353
	.long	LBB31_73-Ltmp353
	.long	LBB31_73-Ltmp353
	.long	LBB31_57-Ltmp353
	.long	LBB31_73-Ltmp353
	.long	LBB31_73-Ltmp353
	.long	LBB31_73-Ltmp353
	.long	LBB31_73-Ltmp353
	.long	LBB31_73-Ltmp353
	.long	LBB31_73-Ltmp353
	.long	LBB31_73-Ltmp353
	.long	LBB31_73-Ltmp353
	.long	LBB31_73-Ltmp353
	.long	LBB31_73-Ltmp353
	.long	LBB31_58-Ltmp353
	.long	LBB31_59-Ltmp353
	.long	LBB31_73-Ltmp353
	.long	LBB31_73-Ltmp353
	.long	LBB31_73-Ltmp353
	.long	LBB31_73-Ltmp353
	.long	LBB31_73-Ltmp353
	.long	LBB31_73-Ltmp353
	.long	LBB31_73-Ltmp353
	.long	LBB31_73-Ltmp353
	.long	LBB31_73-Ltmp353
	.long	LBB31_73-Ltmp353
	.long	LBB31_73-Ltmp353
	.long	LBB31_73-Ltmp353
	.long	LBB31_73-Ltmp353
	.long	LBB31_73-Ltmp353
	.long	LBB31_71-Ltmp353
	.long	LBB31_73-Ltmp353
	.long	LBB31_73-Ltmp353
	.long	LBB31_72-Ltmp353
                                        ; -- End function
	.p2align	2                               ; -- Begin function ggml_get_n_tasks
_ggml_get_n_tasks:                      ; @ggml_get_n_tasks
Lfunc_begin32:
	.loc	0 2149 0                        ; ggml/src/ggml-cpu/ggml-cpu.c:2149:0
	.cfi_startproc
; %bb.0:
	sub	sp, sp, #224
	stp	x29, x30, [sp, #208]            ; 16-byte Folded Spill
	add	x29, sp, #208
	.cfi_def_cfa w29, 16
	.cfi_offset w30, -8
	.cfi_offset w29, -16
	stur	x0, [x29, #-16]
	stur	w1, [x29, #-20]
Ltmp452:
	.loc	0 2150 9 prologue_end           ; ggml/src/ggml-cpu/ggml-cpu.c:2150:9
	stur	wzr, [x29, #-24]
Ltmp453:
	.loc	0 2152 23                       ; ggml/src/ggml-cpu/ggml-cpu.c:2152:23
	ldur	x0, [x29, #-16]
	.loc	0 2152 9 is_stmt 0              ; ggml/src/ggml-cpu/ggml-cpu.c:2152:9
	bl	_ggml_is_empty
Ltmp454:
	.loc	0 2152 9                        ; ggml/src/ggml-cpu/ggml-cpu.c:2152:9
	tbz	w0, #0, LBB32_2
	b	LBB32_1
LBB32_1:
Ltmp455:
	.loc	0 2154 17 is_stmt 1             ; ggml/src/ggml-cpu/ggml-cpu.c:2154:17
	mov	w8, #1                          ; =0x1
	stur	w8, [x29, #-24]
	.loc	0 2155 16                       ; ggml/src/ggml-cpu/ggml-cpu.c:2155:16
	ldur	w8, [x29, #-24]
	.loc	0 2155 9 is_stmt 0              ; ggml/src/ggml-cpu/ggml-cpu.c:2155:9
	stur	w8, [x29, #-4]
	b	LBB32_64
Ltmp456:
LBB32_2:
	.loc	0 2158 13 is_stmt 1             ; ggml/src/ggml-cpu/ggml-cpu.c:2158:13
	ldur	x8, [x29, #-16]
	.loc	0 2158 19 is_stmt 0             ; ggml/src/ggml-cpu/ggml-cpu.c:2158:19
	ldr	w8, [x8, #80]
	.loc	0 2158 5                        ; ggml/src/ggml-cpu/ggml-cpu.c:2158:5
	subs	w8, w8, #0
	mov	w8, w8
                                        ; kill: def $x8 killed $w8
	str	x8, [sp, #56]                   ; 8-byte Folded Spill
	subs	x8, x8, #82
	b.hi	LBB32_59
; %bb.3:
	.loc	0 0 5                           ; ggml/src/ggml-cpu/ggml-cpu.c:0:5
	ldr	x11, [sp, #56]                  ; 8-byte Folded Reload
	.loc	0 2158 5                        ; ggml/src/ggml-cpu/ggml-cpu.c:2158:5
	adrp	x10, lJTI32_0@PAGE
	add	x10, x10, lJTI32_0@PAGEOFF
Ltmp457:
	adr	x8, Ltmp457
	ldrsw	x9, [x10, x11, lsl #2]
	add	x8, x8, x9
	br	x8
LBB32_4:
Ltmp458:
	.loc	0 2166 27 is_stmt 1             ; ggml/src/ggml-cpu/ggml-cpu.c:2166:27
	ldur	w8, [x29, #-20]
	.loc	0 2166 25 is_stmt 0             ; ggml/src/ggml-cpu/ggml-cpu.c:2166:25
	stur	w8, [x29, #-24]
Ltmp459:
	.loc	0 2167 15 is_stmt 1             ; ggml/src/ggml-cpu/ggml-cpu.c:2167:15
	b	LBB32_63
LBB32_5:
Ltmp460:
	.loc	0 2179 25                       ; ggml/src/ggml-cpu/ggml-cpu.c:2179:25
	mov	w8, #1                          ; =0x1
	stur	w8, [x29, #-24]
Ltmp461:
	.loc	0 2180 15                       ; ggml/src/ggml-cpu/ggml-cpu.c:2180:15
	b	LBB32_63
LBB32_6:
Ltmp462:
	.loc	0 2183 27                       ; ggml/src/ggml-cpu/ggml-cpu.c:2183:27
	ldur	w8, [x29, #-20]
	.loc	0 2183 25 is_stmt 0             ; ggml/src/ggml-cpu/ggml-cpu.c:2183:25
	stur	w8, [x29, #-24]
Ltmp463:
	.loc	0 2184 15 is_stmt 1             ; ggml/src/ggml-cpu/ggml-cpu.c:2184:15
	b	LBB32_63
LBB32_7:
Ltmp464:
	.loc	0 2189 25                       ; ggml/src/ggml-cpu/ggml-cpu.c:2189:25
	mov	w8, #1                          ; =0x1
	stur	w8, [x29, #-24]
Ltmp465:
	.loc	0 2190 15                       ; ggml/src/ggml-cpu/ggml-cpu.c:2190:15
	b	LBB32_63
LBB32_8:
	.loc	0 2192 39                       ; ggml/src/ggml-cpu/ggml-cpu.c:2192:39
	ldur	x0, [x29, #-16]
	.loc	0 2192 21 is_stmt 0             ; ggml/src/ggml-cpu/ggml-cpu.c:2192:21
	bl	_ggml_get_unary_op
	str	w0, [sp, #52]                   ; 4-byte Folded Spill
	.loc	0 2192 13                       ; ggml/src/ggml-cpu/ggml-cpu.c:2192:13
	subs	w8, w0, #0
	subs	w8, w8, #7
	b.ls	LBB32_11
	b	LBB32_9
LBB32_9:
	.loc	0 0 13                          ; ggml/src/ggml-cpu/ggml-cpu.c:0:13
	ldr	w8, [sp, #52]                   ; 4-byte Folded Reload
	.loc	0 2192 13                       ; ggml/src/ggml-cpu/ggml-cpu.c:2192:13
	subs	w8, w8, #8
	subs	w8, w8, #2
	b.ls	LBB32_12
	b	LBB32_10
LBB32_10:
	.loc	0 0 13                          ; ggml/src/ggml-cpu/ggml-cpu.c:0:13
	ldr	w8, [sp, #52]                   ; 4-byte Folded Reload
	.loc	0 2192 13                       ; ggml/src/ggml-cpu/ggml-cpu.c:2192:13
	subs	w8, w8, #11
	subs	w8, w8, #2
	b.hi	LBB32_13
	b	LBB32_11
LBB32_11:
Ltmp466:
	.loc	0 2205 33 is_stmt 1             ; ggml/src/ggml-cpu/ggml-cpu.c:2205:33
	mov	w8, #1                          ; =0x1
	stur	w8, [x29, #-24]
Ltmp467:
	.loc	0 2206 23                       ; ggml/src/ggml-cpu/ggml-cpu.c:2206:23
	b	LBB32_14
LBB32_12:
Ltmp468:
	.loc	0 2212 35                       ; ggml/src/ggml-cpu/ggml-cpu.c:2212:35
	ldur	w8, [x29, #-20]
	.loc	0 2212 33 is_stmt 0             ; ggml/src/ggml-cpu/ggml-cpu.c:2212:33
	stur	w8, [x29, #-24]
Ltmp469:
	.loc	0 2213 23 is_stmt 1             ; ggml/src/ggml-cpu/ggml-cpu.c:2213:23
	b	LBB32_14
LBB32_13:
	.loc	0 2215 21                       ; ggml/src/ggml-cpu/ggml-cpu.c:2215:21
	adrp	x0, l_.str.1@PAGE
	add	x0, x0, l_.str.1@PAGEOFF
	mov	w1, #2215                       ; =0x8a7
	adrp	x2, l_.str.4@PAGE
	add	x2, x2, l_.str.4@PAGEOFF
	bl	_ggml_abort
Ltmp470:
LBB32_14:
	.loc	0 2217 13                       ; ggml/src/ggml-cpu/ggml-cpu.c:2217:13
	b	LBB32_63
LBB32_15:
Ltmp471:
	.loc	0 2231 27                       ; ggml/src/ggml-cpu/ggml-cpu.c:2231:27
	ldur	w8, [x29, #-20]
	.loc	0 2231 25 is_stmt 0             ; ggml/src/ggml-cpu/ggml-cpu.c:2231:25
	stur	w8, [x29, #-24]
Ltmp472:
	.loc	0 2232 15 is_stmt 1             ; ggml/src/ggml-cpu/ggml-cpu.c:2232:15
	b	LBB32_63
LBB32_16:
Ltmp473:
	.loc	0 2238 25                       ; ggml/src/ggml-cpu/ggml-cpu.c:2238:25
	mov	w8, #1                          ; =0x1
	stur	w8, [x29, #-24]
Ltmp474:
	.loc	0 2239 15                       ; ggml/src/ggml-cpu/ggml-cpu.c:2239:15
	b	LBB32_63
LBB32_17:
Ltmp475:
	.loc	0 2249 25                       ; ggml/src/ggml-cpu/ggml-cpu.c:2249:25
	mov	w8, #1                          ; =0x1
	stur	w8, [x29, #-24]
Ltmp476:
	.loc	0 2250 15                       ; ggml/src/ggml-cpu/ggml-cpu.c:2250:15
	b	LBB32_63
LBB32_18:
Ltmp477:
	.loc	0 2258 27                       ; ggml/src/ggml-cpu/ggml-cpu.c:2258:27
	ldur	w8, [x29, #-20]
	.loc	0 2258 25 is_stmt 0             ; ggml/src/ggml-cpu/ggml-cpu.c:2258:25
	stur	w8, [x29, #-24]
Ltmp478:
	.loc	0 2259 15 is_stmt 1             ; ggml/src/ggml-cpu/ggml-cpu.c:2259:15
	b	LBB32_63
LBB32_19:
Ltmp479:
	.loc	0 2262 25                       ; ggml/src/ggml-cpu/ggml-cpu.c:2262:25
	mov	w8, #1                          ; =0x1
	stur	w8, [x29, #-24]
Ltmp480:
	.loc	0 2263 15                       ; ggml/src/ggml-cpu/ggml-cpu.c:2263:15
	b	LBB32_63
LBB32_20:
Ltmp481:
	.loc	0 2266 27                       ; ggml/src/ggml-cpu/ggml-cpu.c:2266:27
	ldursw	x8, [x29, #-20]
	str	x8, [sp, #40]                   ; 8-byte Folded Spill
	ldur	x8, [x29, #-16]
	ldr	x0, [x8, #152]
	bl	_ggml_nrows
	ldr	x8, [sp, #40]                   ; 8-byte Folded Reload
	subs	x8, x8, x0
	b.ge	LBB32_22
	b	LBB32_21
LBB32_21:
	ldursw	x0, [x29, #-20]
	str	x0, [sp, #32]                   ; 8-byte Folded Spill
	b	LBB32_23
LBB32_22:
	ldur	x8, [x29, #-16]
	ldr	x0, [x8, #152]
	bl	_ggml_nrows
	str	x0, [sp, #32]                   ; 8-byte Folded Spill
	b	LBB32_23
LBB32_23:
	.loc	0 0 27 is_stmt 0                ; ggml/src/ggml-cpu/ggml-cpu.c:0:27
	ldr	x8, [sp, #32]                   ; 8-byte Folded Reload
                                        ; kill: def $w8 killed $w8 killed $x8
	.loc	0 2266 25                       ; ggml/src/ggml-cpu/ggml-cpu.c:2266:25
	stur	w8, [x29, #-24]
Ltmp482:
	.loc	0 2267 15 is_stmt 1             ; ggml/src/ggml-cpu/ggml-cpu.c:2267:15
	b	LBB32_63
LBB32_24:
Ltmp483:
	.loc	0 2274 27                       ; ggml/src/ggml-cpu/ggml-cpu.c:2274:27
	ldur	w8, [x29, #-20]
	.loc	0 2274 25 is_stmt 0             ; ggml/src/ggml-cpu/ggml-cpu.c:2274:25
	stur	w8, [x29, #-24]
Ltmp484:
	.loc	0 2275 15 is_stmt 1             ; ggml/src/ggml-cpu/ggml-cpu.c:2275:15
	b	LBB32_63
LBB32_25:
Ltmp485:
	.loc	0 2280 25                       ; ggml/src/ggml-cpu/ggml-cpu.c:2280:25
	mov	w8, #1                          ; =0x1
	stur	w8, [x29, #-24]
Ltmp486:
	.loc	0 2281 15                       ; ggml/src/ggml-cpu/ggml-cpu.c:2281:15
	b	LBB32_63
LBB32_26:
Ltmp487:
	.loc	0 2296 27                       ; ggml/src/ggml-cpu/ggml-cpu.c:2296:27
	ldur	w8, [x29, #-20]
	.loc	0 2296 25 is_stmt 0             ; ggml/src/ggml-cpu/ggml-cpu.c:2296:25
	stur	w8, [x29, #-24]
Ltmp488:
	.loc	0 2297 15 is_stmt 1             ; ggml/src/ggml-cpu/ggml-cpu.c:2297:15
	b	LBB32_63
LBB32_27:
Ltmp489:
	.loc	0 2302 25                       ; ggml/src/ggml-cpu/ggml-cpu.c:2302:25
	mov	w8, #1                          ; =0x1
	stur	w8, [x29, #-24]
Ltmp490:
	.loc	0 2303 15                       ; ggml/src/ggml-cpu/ggml-cpu.c:2303:15
	b	LBB32_63
LBB32_28:
Ltmp491:
	.loc	0 2307 17                       ; ggml/src/ggml-cpu/ggml-cpu.c:2307:17
	ldur	x8, [x29, #-16]
	ldur	q0, [x8, #84]
	stur	q0, [x29, #-48]
	ldur	x8, [x8, #100]
	stur	x8, [x29, #-32]
Ltmp492:
	.loc	0 2308 23                       ; ggml/src/ggml-cpu/ggml-cpu.c:2308:23
	ldur	w8, [x29, #-40]
Ltmp493:
	.loc	0 2308 21 is_stmt 0             ; ggml/src/ggml-cpu/ggml-cpu.c:2308:21
	adds	w8, w8, #1
	b.ne	LBB32_30
	b	LBB32_29
LBB32_29:
Ltmp494:
	.loc	0 2309 31 is_stmt 1             ; ggml/src/ggml-cpu/ggml-cpu.c:2309:31
	ldur	w8, [x29, #-20]
	.loc	0 2309 29 is_stmt 0             ; ggml/src/ggml-cpu/ggml-cpu.c:2309:29
	stur	w8, [x29, #-24]
	.loc	0 2310 17 is_stmt 1             ; ggml/src/ggml-cpu/ggml-cpu.c:2310:17
	b	LBB32_34
Ltmp495:
LBB32_30:
	.loc	0 2311 31                       ; ggml/src/ggml-cpu/ggml-cpu.c:2311:31
	ldur	w8, [x29, #-40]
	ldur	w9, [x29, #-20]
	subs	w8, w8, w9
	b.ge	LBB32_32
	b	LBB32_31
LBB32_31:
	ldur	w8, [x29, #-40]
	str	w8, [sp, #28]                   ; 4-byte Folded Spill
	b	LBB32_33
LBB32_32:
	ldur	w8, [x29, #-20]
	str	w8, [sp, #28]                   ; 4-byte Folded Spill
	b	LBB32_33
LBB32_33:
	.loc	0 0 31 is_stmt 0                ; ggml/src/ggml-cpu/ggml-cpu.c:0:31
	ldr	w8, [sp, #28]                   ; 4-byte Folded Reload
	.loc	0 2311 29                       ; ggml/src/ggml-cpu/ggml-cpu.c:2311:29
	stur	w8, [x29, #-24]
	b	LBB32_34
Ltmp496:
LBB32_34:
	.loc	0 2313 15 is_stmt 1             ; ggml/src/ggml-cpu/ggml-cpu.c:2313:15
	b	LBB32_63
LBB32_35:
Ltmp497:
	.loc	0 2317 17                       ; ggml/src/ggml-cpu/ggml-cpu.c:2317:17
	ldur	x8, [x29, #-16]
	ldur	q0, [x8, #84]
	stur	q0, [x29, #-80]
	ldur	x8, [x8, #100]
	stur	x8, [x29, #-64]
Ltmp498:
	.loc	0 2318 23                       ; ggml/src/ggml-cpu/ggml-cpu.c:2318:23
	ldur	w8, [x29, #-72]
Ltmp499:
	.loc	0 2318 21 is_stmt 0             ; ggml/src/ggml-cpu/ggml-cpu.c:2318:21
	adds	w8, w8, #1
	b.ne	LBB32_37
	b	LBB32_36
LBB32_36:
Ltmp500:
	.loc	0 2319 31 is_stmt 1             ; ggml/src/ggml-cpu/ggml-cpu.c:2319:31
	ldur	w8, [x29, #-20]
	.loc	0 2319 29 is_stmt 0             ; ggml/src/ggml-cpu/ggml-cpu.c:2319:29
	stur	w8, [x29, #-24]
	.loc	0 2320 17 is_stmt 1             ; ggml/src/ggml-cpu/ggml-cpu.c:2320:17
	b	LBB32_41
Ltmp501:
LBB32_37:
	.loc	0 2321 31                       ; ggml/src/ggml-cpu/ggml-cpu.c:2321:31
	ldur	w8, [x29, #-72]
	ldur	w9, [x29, #-20]
	subs	w8, w8, w9
	b.ge	LBB32_39
	b	LBB32_38
LBB32_38:
	ldur	w8, [x29, #-72]
	str	w8, [sp, #24]                   ; 4-byte Folded Spill
	b	LBB32_40
LBB32_39:
	ldur	w8, [x29, #-20]
	str	w8, [sp, #24]                   ; 4-byte Folded Spill
	b	LBB32_40
LBB32_40:
	.loc	0 0 31 is_stmt 0                ; ggml/src/ggml-cpu/ggml-cpu.c:0:31
	ldr	w8, [sp, #24]                   ; 4-byte Folded Reload
	.loc	0 2321 29                       ; ggml/src/ggml-cpu/ggml-cpu.c:2321:29
	stur	w8, [x29, #-24]
	b	LBB32_41
Ltmp502:
LBB32_41:
	.loc	0 2323 15 is_stmt 1             ; ggml/src/ggml-cpu/ggml-cpu.c:2323:15
	b	LBB32_63
LBB32_42:
Ltmp503:
	.loc	0 2327 17                       ; ggml/src/ggml-cpu/ggml-cpu.c:2327:17
	ldur	x8, [x29, #-16]
	ldur	q0, [x8, #84]
	str	q0, [sp, #96]
	ldur	x8, [x8, #100]
	str	x8, [sp, #112]
Ltmp504:
	.loc	0 2328 23                       ; ggml/src/ggml-cpu/ggml-cpu.c:2328:23
	ldr	w8, [sp, #104]
Ltmp505:
	.loc	0 2328 21 is_stmt 0             ; ggml/src/ggml-cpu/ggml-cpu.c:2328:21
	adds	w8, w8, #1
	b.ne	LBB32_44
	b	LBB32_43
LBB32_43:
Ltmp506:
	.loc	0 2329 31 is_stmt 1             ; ggml/src/ggml-cpu/ggml-cpu.c:2329:31
	ldur	w8, [x29, #-20]
	.loc	0 2329 29 is_stmt 0             ; ggml/src/ggml-cpu/ggml-cpu.c:2329:29
	stur	w8, [x29, #-24]
	.loc	0 2330 17 is_stmt 1             ; ggml/src/ggml-cpu/ggml-cpu.c:2330:17
	b	LBB32_48
Ltmp507:
LBB32_44:
	.loc	0 2331 31                       ; ggml/src/ggml-cpu/ggml-cpu.c:2331:31
	ldr	w8, [sp, #104]
	ldur	w9, [x29, #-20]
	subs	w8, w8, w9
	b.ge	LBB32_46
	b	LBB32_45
LBB32_45:
	ldr	w8, [sp, #104]
	str	w8, [sp, #20]                   ; 4-byte Folded Spill
	b	LBB32_47
LBB32_46:
	ldur	w8, [x29, #-20]
	str	w8, [sp, #20]                   ; 4-byte Folded Spill
	b	LBB32_47
LBB32_47:
	.loc	0 0 31 is_stmt 0                ; ggml/src/ggml-cpu/ggml-cpu.c:0:31
	ldr	w8, [sp, #20]                   ; 4-byte Folded Reload
	.loc	0 2331 29                       ; ggml/src/ggml-cpu/ggml-cpu.c:2331:29
	stur	w8, [x29, #-24]
	b	LBB32_48
Ltmp508:
LBB32_48:
	.loc	0 2333 15 is_stmt 1             ; ggml/src/ggml-cpu/ggml-cpu.c:2333:15
	b	LBB32_63
LBB32_49:
Ltmp509:
	.loc	0 2337 17                       ; ggml/src/ggml-cpu/ggml-cpu.c:2337:17
	ldur	x8, [x29, #-16]
	ldur	q0, [x8, #84]
	str	q0, [sp, #64]
	ldur	x8, [x8, #100]
	str	x8, [sp, #80]
Ltmp510:
	.loc	0 2338 23                       ; ggml/src/ggml-cpu/ggml-cpu.c:2338:23
	ldr	w8, [sp, #72]
Ltmp511:
	.loc	0 2338 21 is_stmt 0             ; ggml/src/ggml-cpu/ggml-cpu.c:2338:21
	adds	w8, w8, #1
	b.ne	LBB32_51
	b	LBB32_50
LBB32_50:
Ltmp512:
	.loc	0 2339 31 is_stmt 1             ; ggml/src/ggml-cpu/ggml-cpu.c:2339:31
	ldur	w8, [x29, #-20]
	.loc	0 2339 29 is_stmt 0             ; ggml/src/ggml-cpu/ggml-cpu.c:2339:29
	stur	w8, [x29, #-24]
	.loc	0 2340 17 is_stmt 1             ; ggml/src/ggml-cpu/ggml-cpu.c:2340:17
	b	LBB32_55
Ltmp513:
LBB32_51:
	.loc	0 2341 31                       ; ggml/src/ggml-cpu/ggml-cpu.c:2341:31
	ldr	w8, [sp, #72]
	ldur	w9, [x29, #-20]
	subs	w8, w8, w9
	b.ge	LBB32_53
	b	LBB32_52
LBB32_52:
	ldr	w8, [sp, #72]
	str	w8, [sp, #16]                   ; 4-byte Folded Spill
	b	LBB32_54
LBB32_53:
	ldur	w8, [x29, #-20]
	str	w8, [sp, #16]                   ; 4-byte Folded Spill
	b	LBB32_54
LBB32_54:
	.loc	0 0 31 is_stmt 0                ; ggml/src/ggml-cpu/ggml-cpu.c:0:31
	ldr	w8, [sp, #16]                   ; 4-byte Folded Reload
	.loc	0 2341 29                       ; ggml/src/ggml-cpu/ggml-cpu.c:2341:29
	stur	w8, [x29, #-24]
	b	LBB32_55
Ltmp514:
LBB32_55:
	.loc	0 2343 15 is_stmt 1             ; ggml/src/ggml-cpu/ggml-cpu.c:2343:15
	b	LBB32_63
LBB32_56:
Ltmp515:
	.loc	0 2348 27                       ; ggml/src/ggml-cpu/ggml-cpu.c:2348:27
	ldur	w8, [x29, #-20]
	.loc	0 2348 25 is_stmt 0             ; ggml/src/ggml-cpu/ggml-cpu.c:2348:25
	stur	w8, [x29, #-24]
Ltmp516:
	.loc	0 2349 15 is_stmt 1             ; ggml/src/ggml-cpu/ggml-cpu.c:2349:15
	b	LBB32_63
LBB32_57:
Ltmp517:
	.loc	0 2352 25                       ; ggml/src/ggml-cpu/ggml-cpu.c:2352:25
	mov	w8, #1                          ; =0x1
	stur	w8, [x29, #-24]
Ltmp518:
	.loc	0 2353 15                       ; ggml/src/ggml-cpu/ggml-cpu.c:2353:15
	b	LBB32_63
LBB32_58:
Ltmp519:
	.loc	0 2356 17                       ; ggml/src/ggml-cpu/ggml-cpu.c:2356:17
	adrp	x0, l_.str.1@PAGE
	add	x0, x0, l_.str.1@PAGEOFF
	mov	w1, #2356                       ; =0x934
	adrp	x2, l_.str.4@PAGE
	add	x2, x2, l_.str.4@PAGEOFF
	bl	_ggml_abort
Ltmp520:
LBB32_59:
	.loc	0 2360 25                       ; ggml/src/ggml-cpu/ggml-cpu.c:2360:25
	adrp	x8, ___stderrp@GOTPAGE
	ldr	x8, [x8, ___stderrp@GOTPAGEOFF]
	ldr	x0, [x8]
	.loc	0 2360 17 is_stmt 0             ; ggml/src/ggml-cpu/ggml-cpu.c:2360:17
	mov	x9, sp
	adrp	x8, l___func__.ggml_get_n_tasks@PAGE
	add	x8, x8, l___func__.ggml_get_n_tasks@PAGEOFF
	str	x8, [x9]
	adrp	x1, l_.str.19@PAGE
	add	x1, x1, l_.str.19@PAGEOFF
	bl	_fprintf
Ltmp521:
	.loc	0 2361 21 is_stmt 1             ; ggml/src/ggml-cpu/ggml-cpu.c:2361:21
	ldur	x8, [x29, #-16]
	.loc	0 2361 27 is_stmt 0             ; ggml/src/ggml-cpu/ggml-cpu.c:2361:27
	ldr	w8, [x8, #80]
Ltmp522:
	.loc	0 2361 21                       ; ggml/src/ggml-cpu/ggml-cpu.c:2361:21
	subs	w8, w8, #82
	b.hs	LBB32_61
	b	LBB32_60
LBB32_60:
Ltmp523:
	.loc	0 2362 29 is_stmt 1             ; ggml/src/ggml-cpu/ggml-cpu.c:2362:29
	adrp	x8, ___stderrp@GOTPAGE
	ldr	x8, [x8, ___stderrp@GOTPAGEOFF]
	ldr	x8, [x8]
	str	x8, [sp, #8]                    ; 8-byte Folded Spill
	.loc	0 2362 58 is_stmt 0             ; ggml/src/ggml-cpu/ggml-cpu.c:2362:58
	ldur	x8, [x29, #-16]
	.loc	0 2362 64                       ; ggml/src/ggml-cpu/ggml-cpu.c:2362:64
	ldr	w0, [x8, #80]
	.loc	0 2362 45                       ; ggml/src/ggml-cpu/ggml-cpu.c:2362:45
	bl	_ggml_op_name
	mov	x8, x0
	ldr	x0, [sp, #8]                    ; 8-byte Folded Reload
	.loc	0 2362 21                       ; ggml/src/ggml-cpu/ggml-cpu.c:2362:21
	mov	x9, sp
	str	x8, [x9]
	adrp	x1, l_.str.20@PAGE
	add	x1, x1, l_.str.20@PAGEOFF
	bl	_fprintf
	.loc	0 2363 17 is_stmt 1             ; ggml/src/ggml-cpu/ggml-cpu.c:2363:17
	b	LBB32_62
Ltmp524:
LBB32_61:
	.loc	0 2364 29                       ; ggml/src/ggml-cpu/ggml-cpu.c:2364:29
	adrp	x8, ___stderrp@GOTPAGE
	ldr	x8, [x8, ___stderrp@GOTPAGEOFF]
	ldr	x0, [x8]
	.loc	0 2364 45 is_stmt 0             ; ggml/src/ggml-cpu/ggml-cpu.c:2364:45
	ldur	x8, [x29, #-16]
	.loc	0 2364 51                       ; ggml/src/ggml-cpu/ggml-cpu.c:2364:51
	ldr	w8, [x8, #80]
                                        ; kill: def $x8 killed $w8
	.loc	0 2364 21                       ; ggml/src/ggml-cpu/ggml-cpu.c:2364:21
	mov	x9, sp
	str	x8, [x9]
	adrp	x1, l_.str.21@PAGE
	add	x1, x1, l_.str.21@PAGEOFF
	bl	_fprintf
	b	LBB32_62
Ltmp525:
LBB32_62:
	.loc	0 2366 17 is_stmt 1             ; ggml/src/ggml-cpu/ggml-cpu.c:2366:17
	adrp	x0, l_.str.1@PAGE
	add	x0, x0, l_.str.1@PAGEOFF
	mov	w1, #2366                       ; =0x93e
	adrp	x2, l_.str.4@PAGE
	add	x2, x2, l_.str.4@PAGEOFF
	bl	_ggml_abort
Ltmp526:
LBB32_63:
	.loc	0 2372 12                       ; ggml/src/ggml-cpu/ggml-cpu.c:2372:12
	ldur	w8, [x29, #-24]
	.loc	0 2372 5 is_stmt 0              ; ggml/src/ggml-cpu/ggml-cpu.c:2372:5
	stur	w8, [x29, #-4]
	b	LBB32_64
LBB32_64:
	.loc	0 2373 1 is_stmt 1              ; ggml/src/ggml-cpu/ggml-cpu.c:2373:1
	ldur	w0, [x29, #-4]
	.loc	0 2373 1 epilogue_begin is_stmt 0 ; ggml/src/ggml-cpu/ggml-cpu.c:2373:1
	ldp	x29, x30, [sp, #208]            ; 16-byte Folded Reload
	add	sp, sp, #224
	ret
Ltmp527:
Lfunc_end32:
	.cfi_endproc
	.p2align	2
lJTI32_0:
	.long	LBB32_57-Ltmp457
	.long	LBB32_4-Ltmp457
	.long	LBB32_4-Ltmp457
	.long	LBB32_4-Ltmp457
	.long	LBB32_4-Ltmp457
	.long	LBB32_5-Ltmp457
	.long	LBB32_15-Ltmp457
	.long	LBB32_15-Ltmp457
	.long	LBB32_5-Ltmp457
	.long	LBB32_5-Ltmp457
	.long	LBB32_5-Ltmp457
	.long	LBB32_5-Ltmp457
	.long	LBB32_5-Ltmp457
	.long	LBB32_5-Ltmp457
	.long	LBB32_5-Ltmp457
	.long	LBB32_5-Ltmp457
	.long	LBB32_5-Ltmp457
	.long	LBB32_6-Ltmp457
	.long	LBB32_7-Ltmp457
	.long	LBB32_7-Ltmp457
	.long	LBB32_15-Ltmp457
	.long	LBB32_15-Ltmp457
	.long	LBB32_15-Ltmp457
	.long	LBB32_15-Ltmp457
	.long	LBB32_15-Ltmp457
	.long	LBB32_15-Ltmp457
	.long	LBB32_15-Ltmp457
	.long	LBB32_15-Ltmp457
	.long	LBB32_15-Ltmp457
	.long	LBB32_15-Ltmp457
	.long	LBB32_17-Ltmp457
	.long	LBB32_17-Ltmp457
	.long	LBB32_4-Ltmp457
	.long	LBB32_4-Ltmp457
	.long	LBB32_17-Ltmp457
	.long	LBB32_17-Ltmp457
	.long	LBB32_17-Ltmp457
	.long	LBB32_17-Ltmp457
	.long	LBB32_16-Ltmp457
	.long	LBB32_17-Ltmp457
	.long	LBB32_17-Ltmp457
	.long	LBB32_18-Ltmp457
	.long	LBB32_18-Ltmp457
	.long	LBB32_20-Ltmp457
	.long	LBB32_18-Ltmp457
	.long	LBB32_18-Ltmp457
	.long	LBB32_18-Ltmp457
	.long	LBB32_19-Ltmp457
	.long	LBB32_24-Ltmp457
	.long	LBB32_24-Ltmp457
	.long	LBB32_24-Ltmp457
	.long	LBB32_24-Ltmp457
	.long	LBB32_24-Ltmp457
	.long	LBB32_25-Ltmp457
	.long	LBB32_25-Ltmp457
	.long	LBB32_25-Ltmp457
	.long	LBB32_26-Ltmp457
	.long	LBB32_26-Ltmp457
	.long	LBB32_26-Ltmp457
	.long	LBB32_26-Ltmp457
	.long	LBB32_26-Ltmp457
	.long	LBB32_26-Ltmp457
	.long	LBB32_7-Ltmp457
	.long	LBB32_26-Ltmp457
	.long	LBB32_26-Ltmp457
	.long	LBB32_26-Ltmp457
	.long	LBB32_26-Ltmp457
	.long	LBB32_27-Ltmp457
	.long	LBB32_27-Ltmp457
	.long	LBB32_27-Ltmp457
	.long	LBB32_18-Ltmp457
	.long	LBB32_26-Ltmp457
	.long	LBB32_26-Ltmp457
	.long	LBB32_26-Ltmp457
	.long	LBB32_8-Ltmp457
	.long	LBB32_28-Ltmp457
	.long	LBB32_35-Ltmp457
	.long	LBB32_42-Ltmp457
	.long	LBB32_49-Ltmp457
	.long	LBB32_56-Ltmp457
	.long	LBB32_56-Ltmp457
	.long	LBB32_56-Ltmp457
	.long	LBB32_58-Ltmp457
                                        ; -- End function
	.p2align	2                               ; -- Begin function ggml_up
_ggml_up:                               ; @ggml_up
Lfunc_begin33:
	.loc	6 68 0 is_stmt 1                ; ggml/src/ggml-impl.h:68:0
	.cfi_startproc
; %bb.0:
	sub	sp, sp, #32
	stp	x29, x30, [sp, #16]             ; 16-byte Folded Spill
	add	x29, sp, #16
	.cfi_def_cfa w29, 16
	.cfi_offset w30, -8
	.cfi_offset w29, -16
	stur	w0, [x29, #-4]
	str	w1, [sp, #8]
Ltmp528:
	.loc	6 70 5 prologue_end             ; ggml/src/ggml-impl.h:70:5
	ldr	w8, [sp, #8]
	ldr	w9, [sp, #8]
	subs	w9, w9, #1
	and	w8, w8, w9
Ltmp529:
	.loc	6 70 5 is_stmt 0                ; ggml/src/ggml-impl.h:70:5
	cbz	w8, LBB33_2
	b	LBB33_1
LBB33_1:
Ltmp530:
	.loc	6 70 5                          ; ggml/src/ggml-impl.h:70:5
	mov	x9, sp
	adrp	x8, l_.str.23@PAGE
	add	x8, x8, l_.str.23@PAGEOFF
	str	x8, [x9]
	adrp	x0, l_.str.22@PAGE
	add	x0, x0, l_.str.22@PAGEOFF
	mov	w1, #70                         ; =0x46
	adrp	x2, l_.str.2@PAGE
	add	x2, x2, l_.str.2@PAGEOFF
	bl	_ggml_abort
Ltmp531:
LBB33_2:
	.loc	6 71 13 is_stmt 1               ; ggml/src/ggml-impl.h:71:13
	ldur	w8, [x29, #-4]
	.loc	6 71 17 is_stmt 0               ; ggml/src/ggml-impl.h:71:17
	ldr	w9, [sp, #8]
	.loc	6 71 15                         ; ggml/src/ggml-impl.h:71:15
	add	w8, w8, w9
	.loc	6 71 19                         ; ggml/src/ggml-impl.h:71:19
	subs	w8, w8, #1
	.loc	6 71 28                         ; ggml/src/ggml-impl.h:71:28
	ldr	w9, [sp, #8]
	.loc	6 71 30                         ; ggml/src/ggml-impl.h:71:30
	subs	w9, w9, #1
	.loc	6 71 24                         ; ggml/src/ggml-impl.h:71:24
	bic	w0, w8, w9
	.loc	6 71 5 epilogue_begin           ; ggml/src/ggml-impl.h:71:5
	ldp	x29, x30, [sp, #16]             ; 16-byte Folded Reload
	add	sp, sp, #32
	ret
Ltmp532:
Lfunc_end33:
	.cfi_endproc
                                        ; -- End function
	.globl	_ggml_threadpool_new            ; -- Begin function ggml_threadpool_new
	.p2align	2
_ggml_threadpool_new:                   ; @ggml_threadpool_new
Lfunc_begin34:
	.loc	0 3095 0 is_stmt 1              ; ggml/src/ggml-cpu/ggml-cpu.c:3095:0
	.cfi_startproc
; %bb.0:
	sub	sp, sp, #32
	stp	x29, x30, [sp, #16]             ; 16-byte Folded Spill
	add	x29, sp, #16
	.cfi_def_cfa w29, 16
	.cfi_offset w30, -8
	.cfi_offset w29, -16
	str	x0, [sp, #8]
Ltmp533:
	.loc	0 3096 37 prologue_end          ; ggml/src/ggml-cpu/ggml-cpu.c:3096:37
	ldr	x0, [sp, #8]
	mov	x2, #0                          ; =0x0
	.loc	0 3096 12 is_stmt 0             ; ggml/src/ggml-cpu/ggml-cpu.c:3096:12
	mov	x1, x2
	bl	_ggml_threadpool_new_impl
	.loc	0 3096 5 epilogue_begin         ; ggml/src/ggml-cpu/ggml-cpu.c:3096:5
	ldp	x29, x30, [sp, #16]             ; 16-byte Folded Reload
	add	sp, sp, #32
	ret
Ltmp534:
Lfunc_end34:
	.cfi_endproc
                                        ; -- End function
	.p2align	2                               ; -- Begin function ggml_threadpool_new_impl
_ggml_threadpool_new_impl:              ; @ggml_threadpool_new_impl
Lfunc_begin35:
	.loc	0 3031 0 is_stmt 1              ; ggml/src/ggml-cpu/ggml-cpu.c:3031:0
	.cfi_startproc
; %bb.0:
	sub	sp, sp, #112
	stp	x29, x30, [sp, #96]             ; 16-byte Folded Spill
	add	x29, sp, #96
	.cfi_def_cfa w29, 16
	.cfi_offset w30, -8
	.cfi_offset w29, -16
	stur	x0, [x29, #-8]
	stur	x1, [x29, #-16]
	stur	x2, [x29, #-24]
Ltmp535:
	.loc	0 3034 9 prologue_end           ; ggml/src/ggml-cpu/ggml-cpu.c:3034:9
	mov	x0, #384                        ; =0x180
	bl	_ggml_aligned_malloc
	.loc	0 3033 30                       ; ggml/src/ggml-cpu/ggml-cpu.c:3033:30
	stur	x0, [x29, #-32]
Ltmp536:
	.loc	0 3036 40                       ; ggml/src/ggml-cpu/ggml-cpu.c:3036:40
	ldur	x8, [x29, #-16]
	.loc	0 3036 9 is_stmt 0              ; ggml/src/ggml-cpu/ggml-cpu.c:3036:9
	ldur	x9, [x29, #-32]
	.loc	0 3036 38                       ; ggml/src/ggml-cpu/ggml-cpu.c:3036:38
	str	x8, [x9, #112]
	.loc	0 3037 40 is_stmt 1             ; ggml/src/ggml-cpu/ggml-cpu.c:3037:40
	ldur	x8, [x29, #-24]
	.loc	0 3037 9 is_stmt 0              ; ggml/src/ggml-cpu/ggml-cpu.c:3037:9
	ldur	x9, [x29, #-32]
	.loc	0 3037 38                       ; ggml/src/ggml-cpu/ggml-cpu.c:3037:38
	str	x8, [x9, #120]
	.loc	0 3038 9 is_stmt 1              ; ggml/src/ggml-cpu/ggml-cpu.c:3038:9
	ldur	x8, [x29, #-32]
	.loc	0 3038 21 is_stmt 0             ; ggml/src/ggml-cpu/ggml-cpu.c:3038:21
	add	x9, x8, #128
	mov	w8, #0                          ; =0x0
	str	w8, [sp, #28]                   ; 4-byte Folded Spill
	.loc	0 3038 38                       ; ggml/src/ggml-cpu/ggml-cpu.c:3038:38
	stlr	w8, [x9]
	.loc	0 3039 9 is_stmt 1              ; ggml/src/ggml-cpu/ggml-cpu.c:3039:9
	ldur	x9, [x29, #-32]
	.loc	0 3039 21 is_stmt 0             ; ggml/src/ggml-cpu/ggml-cpu.c:3039:21
	add	x9, x9, #192
	.loc	0 3039 38                       ; ggml/src/ggml-cpu/ggml-cpu.c:3039:38
	stlr	w8, [x9]
	.loc	0 3040 9 is_stmt 1              ; ggml/src/ggml-cpu/ggml-cpu.c:3040:9
	ldur	x9, [x29, #-32]
	.loc	0 3040 21 is_stmt 0             ; ggml/src/ggml-cpu/ggml-cpu.c:3040:21
	add	x9, x9, #256
	.loc	0 3040 38                       ; ggml/src/ggml-cpu/ggml-cpu.c:3040:38
	stlr	w8, [x9]
	.loc	0 3041 9 is_stmt 1              ; ggml/src/ggml-cpu/ggml-cpu.c:3041:9
	ldur	x9, [x29, #-32]
	.loc	0 3041 21 is_stmt 0             ; ggml/src/ggml-cpu/ggml-cpu.c:3041:21
	add	x9, x9, #320
	.loc	0 3041 38                       ; ggml/src/ggml-cpu/ggml-cpu.c:3041:38
	stlr	w8, [x9]
	.loc	0 3042 9 is_stmt 1              ; ggml/src/ggml-cpu/ggml-cpu.c:3042:9
	ldur	x8, [x29, #-32]
	.loc	0 3042 21 is_stmt 0             ; ggml/src/ggml-cpu/ggml-cpu.c:3042:21
	add	x9, x8, #324
	.loc	0 3042 38                       ; ggml/src/ggml-cpu/ggml-cpu.c:3042:38
	mov	w8, #0                          ; =0x0
	stlrb	w8, [x9]
	.loc	0 3043 40 is_stmt 1             ; ggml/src/ggml-cpu/ggml-cpu.c:3043:40
	ldur	x8, [x29, #-8]
	.loc	0 3043 45 is_stmt 0             ; ggml/src/ggml-cpu/ggml-cpu.c:3043:45
	ldrb	w8, [x8, #525]
	.loc	0 3043 9                        ; ggml/src/ggml-cpu/ggml-cpu.c:3043:9
	ldur	x9, [x29, #-32]
	.loc	0 3043 38                       ; ggml/src/ggml-cpu/ggml-cpu.c:3043:38
	and	w8, w8, #0x1
	.loc	0 3043 21                       ; ggml/src/ggml-cpu/ggml-cpu.c:3043:21
	add	x9, x9, #325
	.loc	0 3043 38                       ; ggml/src/ggml-cpu/ggml-cpu.c:3043:38
	stlrb	w8, [x9]
	.loc	0 3044 9 is_stmt 1              ; ggml/src/ggml-cpu/ggml-cpu.c:3044:9
	ldur	x8, [x29, #-32]
	.loc	0 3044 21 is_stmt 0             ; ggml/src/ggml-cpu/ggml-cpu.c:3044:21
	add	x9, x8, #328
	.loc	0 3044 38                       ; ggml/src/ggml-cpu/ggml-cpu.c:3044:38
	mov	w8, #-1                         ; =0xffffffff
	stlr	w8, [x9]
	.loc	0 3045 9 is_stmt 1              ; ggml/src/ggml-cpu/ggml-cpu.c:3045:9
	ldur	x8, [x29, #-32]
                                        ; kill: def $x9 killed $xzr
	.loc	0 3045 38 is_stmt 0             ; ggml/src/ggml-cpu/ggml-cpu.c:3045:38
	str	xzr, [x8, #336]
	.loc	0 3046 40 is_stmt 1             ; ggml/src/ggml-cpu/ggml-cpu.c:3046:40
	ldur	x8, [x29, #-8]
	.loc	0 3046 45 is_stmt 0             ; ggml/src/ggml-cpu/ggml-cpu.c:3046:45
	ldr	w8, [x8, #512]
	.loc	0 3046 9                        ; ggml/src/ggml-cpu/ggml-cpu.c:3046:9
	ldur	x9, [x29, #-32]
	.loc	0 3046 38                       ; ggml/src/ggml-cpu/ggml-cpu.c:3046:38
	str	w8, [x9, #344]
	.loc	0 3047 40 is_stmt 1             ; ggml/src/ggml-cpu/ggml-cpu.c:3047:40
	ldur	x8, [x29, #-8]
	.loc	0 3047 45 is_stmt 0             ; ggml/src/ggml-cpu/ggml-cpu.c:3047:45
	ldr	w8, [x8, #512]
	.loc	0 3047 9                        ; ggml/src/ggml-cpu/ggml-cpu.c:3047:9
	ldur	x9, [x29, #-32]
	.loc	0 3047 21                       ; ggml/src/ggml-cpu/ggml-cpu.c:3047:21
	add	x9, x9, #348
	.loc	0 3047 38                       ; ggml/src/ggml-cpu/ggml-cpu.c:3047:38
	stlr	w8, [x9]
	.loc	0 3048 40 is_stmt 1             ; ggml/src/ggml-cpu/ggml-cpu.c:3048:40
	ldur	x8, [x29, #-8]
	.loc	0 3048 45 is_stmt 0             ; ggml/src/ggml-cpu/ggml-cpu.c:3048:45
	ldr	w8, [x8, #520]
	.loc	0 3048 9                        ; ggml/src/ggml-cpu/ggml-cpu.c:3048:9
	ldur	x9, [x29, #-32]
	.loc	0 3048 38                       ; ggml/src/ggml-cpu/ggml-cpu.c:3048:38
	str	w8, [x9, #356]
	.loc	0 3049 40 is_stmt 1             ; ggml/src/ggml-cpu/ggml-cpu.c:3049:40
	ldur	x8, [x29, #-8]
	.loc	0 3049 45 is_stmt 0             ; ggml/src/ggml-cpu/ggml-cpu.c:3049:45
	ldr	w8, [x8, #516]
	.loc	0 3049 9                        ; ggml/src/ggml-cpu/ggml-cpu.c:3049:9
	ldur	x9, [x29, #-32]
	.loc	0 3049 38                       ; ggml/src/ggml-cpu/ggml-cpu.c:3049:38
	str	w8, [x9, #352]
	.loc	0 3050 9 is_stmt 1              ; ggml/src/ggml-cpu/ggml-cpu.c:3050:9
	ldur	x8, [x29, #-32]
	.loc	0 3050 38 is_stmt 0             ; ggml/src/ggml-cpu/ggml-cpu.c:3050:38
	str	wzr, [x8, #360]
Ltmp537:
	.loc	0 3054 69 is_stmt 1             ; ggml/src/ggml-cpu/ggml-cpu.c:3054:69
	ldur	x8, [x29, #-8]
	.loc	0 3054 74 is_stmt 0             ; ggml/src/ggml-cpu/ggml-cpu.c:3054:74
	ldrsw	x9, [x8, #512]
	.loc	0 3054 67                       ; ggml/src/ggml-cpu/ggml-cpu.c:3054:67
	mov	x8, #544                        ; =0x220
	mul	x8, x8, x9
	.loc	0 3054 18                       ; ggml/src/ggml-cpu/ggml-cpu.c:3054:18
	stur	x8, [x29, #-40]
	.loc	0 3055 63 is_stmt 1             ; ggml/src/ggml-cpu/ggml-cpu.c:3055:63
	ldur	x0, [x29, #-40]
	.loc	0 3055 43 is_stmt 0             ; ggml/src/ggml-cpu/ggml-cpu.c:3055:43
	bl	_ggml_aligned_malloc
	ldr	w1, [sp, #28]                   ; 4-byte Folded Reload
	.loc	0 3055 33                       ; ggml/src/ggml-cpu/ggml-cpu.c:3055:33
	str	x0, [sp, #48]
	.loc	0 3057 5 is_stmt 1              ; ggml/src/ggml-cpu/ggml-cpu.c:3057:5
	ldr	x0, [sp, #48]
	ldur	x2, [x29, #-40]
	mov	x3, #-1                         ; =0xffffffffffffffff
	bl	___memset_chk
Ltmp538:
	.loc	0 3058 14                       ; ggml/src/ggml-cpu/ggml-cpu.c:3058:14
	str	wzr, [sp, #44]
	.loc	0 3058 10 is_stmt 0             ; ggml/src/ggml-cpu/ggml-cpu.c:3058:10
	b	LBB35_1
LBB35_1:                                ; =>This Inner Loop Header: Depth=1
Ltmp539:
	.loc	0 3058 21                       ; ggml/src/ggml-cpu/ggml-cpu.c:3058:21
	ldr	w8, [sp, #44]
	.loc	0 3058 25                       ; ggml/src/ggml-cpu/ggml-cpu.c:3058:25
	ldur	x9, [x29, #-8]
	.loc	0 3058 30                       ; ggml/src/ggml-cpu/ggml-cpu.c:3058:30
	ldr	w9, [x9, #512]
Ltmp540:
	.loc	0 3058 5                        ; ggml/src/ggml-cpu/ggml-cpu.c:3058:5
	subs	w8, w8, w9
	b.ge	LBB35_4
	b	LBB35_2
LBB35_2:                                ;   in Loop: Header=BB35_1 Depth=1
Ltmp541:
	.loc	0 3059 33 is_stmt 1             ; ggml/src/ggml-cpu/ggml-cpu.c:3059:33
	ldur	x8, [x29, #-32]
	.loc	0 3059 9 is_stmt 0              ; ggml/src/ggml-cpu/ggml-cpu.c:3059:9
	ldr	x9, [sp, #48]
	.loc	0 3059 17                       ; ggml/src/ggml-cpu/ggml-cpu.c:3059:17
	ldrsw	x10, [sp, #44]
	mov	x11, #544                       ; =0x220
	.loc	0 3059 9                        ; ggml/src/ggml-cpu/ggml-cpu.c:3059:9
	mul	x10, x10, x11
	add	x9, x9, x10
	.loc	0 3059 31                       ; ggml/src/ggml-cpu/ggml-cpu.c:3059:31
	str	x8, [x9, #528]
	.loc	0 3060 33 is_stmt 1             ; ggml/src/ggml-cpu/ggml-cpu.c:3060:33
	ldr	w8, [sp, #44]
	.loc	0 3060 9 is_stmt 0              ; ggml/src/ggml-cpu/ggml-cpu.c:3060:9
	ldr	x9, [sp, #48]
	.loc	0 3060 17                       ; ggml/src/ggml-cpu/ggml-cpu.c:3060:17
	ldrsw	x10, [sp, #44]
	.loc	0 3060 9                        ; ggml/src/ggml-cpu/ggml-cpu.c:3060:9
	mul	x10, x10, x11
	add	x9, x9, x10
	.loc	0 3060 31                       ; ggml/src/ggml-cpu/ggml-cpu.c:3060:31
	str	w8, [x9, #536]
	.loc	0 3061 5 is_stmt 1              ; ggml/src/ggml-cpu/ggml-cpu.c:3061:5
	b	LBB35_3
Ltmp542:
LBB35_3:                                ;   in Loop: Header=BB35_1 Depth=1
	.loc	0 3058 42                       ; ggml/src/ggml-cpu/ggml-cpu.c:3058:42
	ldr	w8, [sp, #44]
	add	w8, w8, #1
	str	w8, [sp, #44]
	.loc	0 3058 5 is_stmt 0              ; ggml/src/ggml-cpu/ggml-cpu.c:3058:5
	b	LBB35_1
Ltmp543:
LBB35_4:
	.loc	0 3063 27 is_stmt 1             ; ggml/src/ggml-cpu/ggml-cpu.c:3063:27
	ldr	x8, [sp, #48]
	.loc	0 3063 5 is_stmt 0              ; ggml/src/ggml-cpu/ggml-cpu.c:3063:5
	ldur	x9, [x29, #-32]
	.loc	0 3063 25                       ; ggml/src/ggml-cpu/ggml-cpu.c:3063:25
	str	x8, [x9, #336]
	.loc	0 3066 5 is_stmt 1              ; ggml/src/ggml-cpu/ggml-cpu.c:3066:5
	ldur	x0, [x29, #-32]
	mov	x1, #0                          ; =0x0
	str	x1, [sp, #16]                   ; 8-byte Folded Spill
	bl	_pthread_mutex_init
	ldr	x1, [sp, #16]                   ; 8-byte Folded Reload
	.loc	0 3067 5                        ; ggml/src/ggml-cpu/ggml-cpu.c:3067:5
	ldur	x8, [x29, #-32]
	add	x0, x8, #64
	bl	_pthread_cond_init
	.loc	0 3072 13                       ; ggml/src/ggml-cpu/ggml-cpu.c:3072:13
	str	wzr, [sp, #40]
Ltmp544:
	.loc	0 3074 14                       ; ggml/src/ggml-cpu/ggml-cpu.c:3074:14
	mov	w8, #1                          ; =0x1
	str	w8, [sp, #36]
	.loc	0 3074 10 is_stmt 0             ; ggml/src/ggml-cpu/ggml-cpu.c:3074:10
	b	LBB35_5
LBB35_5:                                ; =>This Inner Loop Header: Depth=1
Ltmp545:
	.loc	0 3074 21                       ; ggml/src/ggml-cpu/ggml-cpu.c:3074:21
	ldr	w8, [sp, #36]
	.loc	0 3074 25                       ; ggml/src/ggml-cpu/ggml-cpu.c:3074:25
	ldur	x9, [x29, #-8]
	.loc	0 3074 30                       ; ggml/src/ggml-cpu/ggml-cpu.c:3074:30
	ldr	w9, [x9, #512]
Ltmp546:
	.loc	0 3074 5                        ; ggml/src/ggml-cpu/ggml-cpu.c:3074:5
	subs	w8, w8, w9
	b.ge	LBB35_10
	b	LBB35_6
LBB35_6:                                ;   in Loop: Header=BB35_5 Depth=1
Ltmp547:
	.loc	0 3075 34 is_stmt 1             ; ggml/src/ggml-cpu/ggml-cpu.c:3075:34
	ldur	x0, [x29, #-8]
	.loc	0 3075 48 is_stmt 0             ; ggml/src/ggml-cpu/ggml-cpu.c:3075:48
	ldr	x8, [sp, #48]
	.loc	0 3075 56                       ; ggml/src/ggml-cpu/ggml-cpu.c:3075:56
	ldrsw	x9, [sp, #36]
	mov	x10, #544                       ; =0x220
	str	x10, [sp, #8]                   ; 8-byte Folded Spill
	.loc	0 3075 48                       ; ggml/src/ggml-cpu/ggml-cpu.c:3075:48
	mul	x9, x9, x10
	add	x8, x8, x9
	.loc	0 3075 59                       ; ggml/src/ggml-cpu/ggml-cpu.c:3075:59
	add	x1, x8, #8
	.loc	0 3075 68                       ; ggml/src/ggml-cpu/ggml-cpu.c:3075:68
	ldur	x8, [x29, #-8]
	.loc	0 3075 73                       ; ggml/src/ggml-cpu/ggml-cpu.c:3075:73
	ldrb	w8, [x8, #524]
	.loc	0 3075 9                        ; ggml/src/ggml-cpu/ggml-cpu.c:3075:9
	and	w2, w8, #0x1
	add	x3, sp, #40
	bl	_ggml_thread_cpumask_next
	ldr	x10, [sp, #8]                   ; 8-byte Folded Reload
	.loc	0 3077 42 is_stmt 1             ; ggml/src/ggml-cpu/ggml-cpu.c:3077:42
	ldr	x8, [sp, #48]
	.loc	0 3077 50 is_stmt 0             ; ggml/src/ggml-cpu/ggml-cpu.c:3077:50
	ldrsw	x9, [sp, #36]
	.loc	0 3077 42                       ; ggml/src/ggml-cpu/ggml-cpu.c:3077:42
	mul	x9, x9, x10
	add	x0, x8, x9
	.loc	0 3077 103                      ; ggml/src/ggml-cpu/ggml-cpu.c:3077:103
	ldr	x8, [sp, #48]
	.loc	0 3077 111                      ; ggml/src/ggml-cpu/ggml-cpu.c:3077:111
	ldrsw	x9, [sp, #36]
	.loc	0 3077 103                      ; ggml/src/ggml-cpu/ggml-cpu.c:3077:103
	mul	x9, x9, x10
	add	x3, x8, x9
	.loc	0 3077 22                       ; ggml/src/ggml-cpu/ggml-cpu.c:3077:22
	mov	x1, #0                          ; =0x0
	adrp	x2, _ggml_graph_compute_secondary_thread@PAGE
	add	x2, x2, _ggml_graph_compute_secondary_thread@PAGEOFF
	bl	_pthread_create
	.loc	0 3077 17                       ; ggml/src/ggml-cpu/ggml-cpu.c:3077:17
	str	w0, [sp, #32]
Ltmp548:
	.loc	0 3078 9 is_stmt 1              ; ggml/src/ggml-cpu/ggml-cpu.c:3078:9
	ldr	w8, [sp, #32]
Ltmp549:
	.loc	0 3078 9 is_stmt 0              ; ggml/src/ggml-cpu/ggml-cpu.c:3078:9
	cbz	w8, LBB35_8
	b	LBB35_7
LBB35_7:
Ltmp550:
	.loc	0 3078 9                        ; ggml/src/ggml-cpu/ggml-cpu.c:3078:9
	mov	x9, sp
	adrp	x8, l_.str.24@PAGE
	add	x8, x8, l_.str.24@PAGEOFF
	str	x8, [x9]
	adrp	x0, l_.str.1@PAGE
	add	x0, x0, l_.str.1@PAGEOFF
	mov	w1, #3078                       ; =0xc06
	adrp	x2, l_.str.2@PAGE
	add	x2, x2, l_.str.2@PAGEOFF
	bl	_ggml_abort
Ltmp551:
LBB35_8:                                ;   in Loop: Header=BB35_5 Depth=1
	.loc	0 3079 5 is_stmt 1              ; ggml/src/ggml-cpu/ggml-cpu.c:3079:5
	b	LBB35_9
Ltmp552:
LBB35_9:                                ;   in Loop: Header=BB35_5 Depth=1
	.loc	0 3074 42                       ; ggml/src/ggml-cpu/ggml-cpu.c:3074:42
	ldr	w8, [sp, #36]
	add	w8, w8, #1
	str	w8, [sp, #36]
	.loc	0 3074 5 is_stmt 0              ; ggml/src/ggml-cpu/ggml-cpu.c:3074:5
	b	LBB35_5
Ltmp553:
LBB35_10:
	.loc	0 3081 30 is_stmt 1             ; ggml/src/ggml-cpu/ggml-cpu.c:3081:30
	ldur	x0, [x29, #-8]
	.loc	0 3081 44 is_stmt 0             ; ggml/src/ggml-cpu/ggml-cpu.c:3081:44
	ldr	x8, [sp, #48]
	.loc	0 3081 55                       ; ggml/src/ggml-cpu/ggml-cpu.c:3081:55
	add	x1, x8, #8
	.loc	0 3081 64                       ; ggml/src/ggml-cpu/ggml-cpu.c:3081:64
	ldur	x8, [x29, #-8]
	.loc	0 3081 69                       ; ggml/src/ggml-cpu/ggml-cpu.c:3081:69
	ldrb	w8, [x8, #524]
	.loc	0 3081 5                        ; ggml/src/ggml-cpu/ggml-cpu.c:3081:5
	and	w2, w8, #0x1
	add	x3, sp, #40
	bl	_ggml_thread_cpumask_next
Ltmp554:
	.loc	0 3083 10 is_stmt 1             ; ggml/src/ggml-cpu/ggml-cpu.c:3083:10
	ldur	x8, [x29, #-32]
	.loc	0 3083 22 is_stmt 0             ; ggml/src/ggml-cpu/ggml-cpu.c:3083:22
	add	x8, x8, #325
	ldarb	w8, [x8]
Ltmp555:
	.loc	0 3083 9                        ; ggml/src/ggml-cpu/ggml-cpu.c:3083:9
	tbnz	w8, #0, LBB35_14
	b	LBB35_11
LBB35_11:
Ltmp556:
	.loc	0 3085 36 is_stmt 1             ; ggml/src/ggml-cpu/ggml-cpu.c:3085:36
	ldur	x8, [x29, #-32]
	.loc	0 3085 48 is_stmt 0             ; ggml/src/ggml-cpu/ggml-cpu.c:3085:48
	ldr	w0, [x8, #352]
	.loc	0 3085 9                        ; ggml/src/ggml-cpu/ggml-cpu.c:3085:9
	bl	_ggml_thread_apply_priority
Ltmp557:
	.loc	0 3086 42 is_stmt 1             ; ggml/src/ggml-cpu/ggml-cpu.c:3086:42
	ldur	x8, [x29, #-32]
	.loc	0 3086 54 is_stmt 0             ; ggml/src/ggml-cpu/ggml-cpu.c:3086:54
	ldr	x8, [x8, #336]
	.loc	0 3086 65                       ; ggml/src/ggml-cpu/ggml-cpu.c:3086:65
	add	x0, x8, #8
	.loc	0 3086 13                       ; ggml/src/ggml-cpu/ggml-cpu.c:3086:13
	bl	_ggml_thread_cpumask_is_valid
Ltmp558:
	.loc	0 3086 13                       ; ggml/src/ggml-cpu/ggml-cpu.c:3086:13
	tbz	w0, #0, LBB35_13
	b	LBB35_12
LBB35_12:
Ltmp559:
	.loc	0 3087 40 is_stmt 1             ; ggml/src/ggml-cpu/ggml-cpu.c:3087:40
	ldur	x8, [x29, #-32]
	.loc	0 3087 52 is_stmt 0             ; ggml/src/ggml-cpu/ggml-cpu.c:3087:52
	ldr	x8, [x8, #336]
	.loc	0 3087 63                       ; ggml/src/ggml-cpu/ggml-cpu.c:3087:63
	add	x0, x8, #8
	.loc	0 3087 13                       ; ggml/src/ggml-cpu/ggml-cpu.c:3087:13
	bl	_ggml_thread_apply_affinity
	.loc	0 3088 9 is_stmt 1              ; ggml/src/ggml-cpu/ggml-cpu.c:3088:9
	b	LBB35_13
Ltmp560:
LBB35_13:
	.loc	0 3089 5                        ; ggml/src/ggml-cpu/ggml-cpu.c:3089:5
	b	LBB35_14
Ltmp561:
LBB35_14:
	.loc	0 3092 12                       ; ggml/src/ggml-cpu/ggml-cpu.c:3092:12
	ldur	x0, [x29, #-32]
	.loc	0 3092 5 epilogue_begin is_stmt 0 ; ggml/src/ggml-cpu/ggml-cpu.c:3092:5
	ldp	x29, x30, [sp, #96]             ; 16-byte Folded Reload
	add	sp, sp, #112
	ret
Ltmp562:
Lfunc_end35:
	.cfi_endproc
                                        ; -- End function
	.globl	_ggml_graph_compute             ; -- Begin function ggml_graph_compute
	.p2align	2
_ggml_graph_compute:                    ; @ggml_graph_compute
Lfunc_begin36:
	.loc	0 3099 0 is_stmt 1              ; ggml/src/ggml-cpu/ggml-cpu.c:3099:0
	.cfi_startproc
; %bb.0:
	stp	x28, x27, [sp, #-32]!           ; 16-byte Folded Spill
	stp	x29, x30, [sp, #16]             ; 16-byte Folded Spill
	add	x29, sp, #16
	sub	sp, sp, #608
	.cfi_def_cfa w29, 16
	.cfi_offset w30, -8
	.cfi_offset w29, -16
	.cfi_offset w27, -24
	.cfi_offset w28, -32
	adrp	x8, ___stack_chk_guard@GOTPAGE
	ldr	x8, [x8, ___stack_chk_guard@GOTPAGEOFF]
	ldr	x8, [x8]
	stur	x8, [x29, #-24]
	str	x0, [sp, #64]
	str	x1, [sp, #56]
Ltmp563:
	.loc	0 3100 5 prologue_end           ; ggml/src/ggml-cpu/ggml-cpu.c:3100:5
	bl	_ggml_cpu_init
Ltmp564:
	.loc	0 3102 5                        ; ggml/src/ggml-cpu/ggml-cpu.c:3102:5
	ldr	x8, [sp, #56]
Ltmp565:
	.loc	0 3102 5 is_stmt 0              ; ggml/src/ggml-cpu/ggml-cpu.c:3102:5
	cbnz	x8, LBB36_2
	b	LBB36_1
LBB36_1:
Ltmp566:
	.loc	0 3102 5                        ; ggml/src/ggml-cpu/ggml-cpu.c:3102:5
	mov	x9, sp
	adrp	x8, l_.str.15@PAGE
	add	x8, x8, l_.str.15@PAGEOFF
	str	x8, [x9]
	adrp	x0, l_.str.1@PAGE
	add	x0, x0, l_.str.1@PAGEOFF
	mov	w1, #3102                       ; =0xc1e
	adrp	x2, l_.str.2@PAGE
	add	x2, x2, l_.str.2@PAGEOFF
	bl	_ggml_abort
Ltmp567:
LBB36_2:
	.loc	0 3103 5 is_stmt 1              ; ggml/src/ggml-cpu/ggml-cpu.c:3103:5
	ldr	x8, [sp, #56]
	ldr	w8, [x8, #16]
Ltmp568:
	.loc	0 3103 5 is_stmt 0              ; ggml/src/ggml-cpu/ggml-cpu.c:3103:5
	subs	w8, w8, #0
	b.gt	LBB36_4
	b	LBB36_3
LBB36_3:
Ltmp569:
	.loc	0 3103 5                        ; ggml/src/ggml-cpu/ggml-cpu.c:3103:5
	mov	x9, sp
	adrp	x8, l_.str.16@PAGE
	add	x8, x8, l_.str.16@PAGEOFF
	str	x8, [x9]
	adrp	x0, l_.str.1@PAGE
	add	x0, x0, l_.str.1@PAGEOFF
	mov	w1, #3103                       ; =0xc1f
	adrp	x2, l_.str.2@PAGE
	add	x2, x2, l_.str.2@PAGEOFF
	bl	_ggml_abort
Ltmp570:
LBB36_4:
	.loc	0 3104 5 is_stmt 1              ; ggml/src/ggml-cpu/ggml-cpu.c:3104:5
	ldr	x8, [sp, #56]
	ldr	x8, [x8]
	cbz	x8, LBB36_7
	b	LBB36_5
LBB36_5:
	ldr	x8, [sp, #56]
	ldr	x8, [x8, #8]
Ltmp571:
	.loc	0 3104 5 is_stmt 0              ; ggml/src/ggml-cpu/ggml-cpu.c:3104:5
	cbnz	x8, LBB36_7
	b	LBB36_6
LBB36_6:
Ltmp572:
	.loc	0 3104 5                        ; ggml/src/ggml-cpu/ggml-cpu.c:3104:5
	mov	x9, sp
	adrp	x8, l_.str.17@PAGE
	add	x8, x8, l_.str.17@PAGEOFF
	str	x8, [x9]
	adrp	x0, l_.str.1@PAGE
	add	x0, x0, l_.str.1@PAGEOFF
	mov	w1, #3104                       ; =0xc20
	adrp	x2, l_.str.2@PAGE
	add	x2, x2, l_.str.2@PAGEOFF
	bl	_ggml_abort
Ltmp573:
LBB36_7:
	.loc	0 3106 51 is_stmt 1             ; ggml/src/ggml-cpu/ggml-cpu.c:3106:51
	ldr	x8, [sp, #56]
	.loc	0 3106 58 is_stmt 0             ; ggml/src/ggml-cpu/ggml-cpu.c:3106:58
	ldr	w8, [x8, #16]
	.loc	0 3106 9                        ; ggml/src/ggml-cpu/ggml-cpu.c:3106:9
	str	w8, [sp, #52]
	.loc	0 3107 43 is_stmt 1             ; ggml/src/ggml-cpu/ggml-cpu.c:3107:43
	ldr	x8, [sp, #56]
	.loc	0 3107 50 is_stmt 0             ; ggml/src/ggml-cpu/ggml-cpu.c:3107:50
	ldr	x8, [x8, #24]
	.loc	0 3107 30                       ; ggml/src/ggml-cpu/ggml-cpu.c:3107:30
	str	x8, [sp, #40]
	.loc	0 3109 10 is_stmt 1             ; ggml/src/ggml-cpu/ggml-cpu.c:3109:10
	strb	wzr, [sp, #39]
Ltmp574:
	.loc	0 3111 9                        ; ggml/src/ggml-cpu/ggml-cpu.c:3111:9
	ldr	x8, [sp, #40]
Ltmp575:
	.loc	0 3111 9 is_stmt 0              ; ggml/src/ggml-cpu/ggml-cpu.c:3111:9
	cbnz	x8, LBB36_9
	b	LBB36_8
LBB36_8:
Ltmp576:
	.loc	0 3113 31 is_stmt 1             ; ggml/src/ggml-cpu/ggml-cpu.c:3113:31
	mov	w8, #1                          ; =0x1
	strb	w8, [sp, #39]
	.loc	0 3115 76                       ; ggml/src/ggml-cpu/ggml-cpu.c:3115:76
	ldr	w0, [sp, #52]
	add	x8, sp, #72
	str	x8, [sp, #24]                   ; 8-byte Folded Spill
	.loc	0 3115 45 is_stmt 0             ; ggml/src/ggml-cpu/ggml-cpu.c:3115:45
	bl	_ggml_threadpool_params_default
	ldr	x0, [sp, #24]                   ; 8-byte Folded Reload
	.loc	0 3116 53 is_stmt 1             ; ggml/src/ggml-cpu/ggml-cpu.c:3116:53
	ldr	x1, [sp, #64]
	.loc	0 3116 61 is_stmt 0             ; ggml/src/ggml-cpu/ggml-cpu.c:3116:61
	ldr	x2, [sp, #56]
	.loc	0 3116 22                       ; ggml/src/ggml-cpu/ggml-cpu.c:3116:22
	bl	_ggml_threadpool_new_impl
	.loc	0 3116 20                       ; ggml/src/ggml-cpu/ggml-cpu.c:3116:20
	str	x0, [sp, #40]
	.loc	0 3117 5 is_stmt 1              ; ggml/src/ggml-cpu/ggml-cpu.c:3117:5
	b	LBB36_10
Ltmp577:
LBB36_9:
	.loc	0 3120 40                       ; ggml/src/ggml-cpu/ggml-cpu.c:3120:40
	ldr	x8, [sp, #64]
	.loc	0 3120 9 is_stmt 0              ; ggml/src/ggml-cpu/ggml-cpu.c:3120:9
	ldr	x9, [sp, #40]
	.loc	0 3120 38                       ; ggml/src/ggml-cpu/ggml-cpu.c:3120:38
	str	x8, [x9, #112]
	.loc	0 3121 40 is_stmt 1             ; ggml/src/ggml-cpu/ggml-cpu.c:3121:40
	ldr	x8, [sp, #56]
	.loc	0 3121 9 is_stmt 0              ; ggml/src/ggml-cpu/ggml-cpu.c:3121:9
	ldr	x9, [sp, #40]
	.loc	0 3121 38                       ; ggml/src/ggml-cpu/ggml-cpu.c:3121:38
	str	x8, [x9, #120]
	.loc	0 3122 9 is_stmt 1              ; ggml/src/ggml-cpu/ggml-cpu.c:3122:9
	ldr	x8, [sp, #40]
	.loc	0 3122 21 is_stmt 0             ; ggml/src/ggml-cpu/ggml-cpu.c:3122:21
	add	x9, x8, #320
	mov	w8, #0                          ; =0x0
	.loc	0 3122 38                       ; ggml/src/ggml-cpu/ggml-cpu.c:3122:38
	stlr	w8, [x9]
	.loc	0 3123 9 is_stmt 1              ; ggml/src/ggml-cpu/ggml-cpu.c:3123:9
	ldr	x8, [sp, #40]
	.loc	0 3123 21 is_stmt 0             ; ggml/src/ggml-cpu/ggml-cpu.c:3123:21
	add	x9, x8, #328
	.loc	0 3123 38                       ; ggml/src/ggml-cpu/ggml-cpu.c:3123:38
	mov	w8, #-1                         ; =0xffffffff
	stlr	w8, [x9]
	.loc	0 3124 9 is_stmt 1              ; ggml/src/ggml-cpu/ggml-cpu.c:3124:9
	ldr	x8, [sp, #40]
	.loc	0 3124 38 is_stmt 0             ; ggml/src/ggml-cpu/ggml-cpu.c:3124:38
	str	wzr, [x8, #360]
	b	LBB36_10
Ltmp578:
LBB36_10:
	.loc	0 3145 9 is_stmt 1              ; ggml/src/ggml-cpu/ggml-cpu.c:3145:9
	ldr	w8, [sp, #52]
	.loc	0 3145 21 is_stmt 0             ; ggml/src/ggml-cpu/ggml-cpu.c:3145:21
	ldr	x9, [sp, #40]
	.loc	0 3145 33                       ; ggml/src/ggml-cpu/ggml-cpu.c:3145:33
	ldr	w9, [x9, #344]
Ltmp579:
	.loc	0 3145 9                        ; ggml/src/ggml-cpu/ggml-cpu.c:3145:9
	subs	w8, w8, w9
	b.le	LBB36_12
	b	LBB36_11
LBB36_11:
Ltmp580:
	.loc	0 3146 9 is_stmt 1              ; ggml/src/ggml-cpu/ggml-cpu.c:3146:9
	ldr	w8, [sp, #52]
	mov	x10, x8
	ldr	x8, [sp, #40]
	ldr	w8, [x8, #344]
                                        ; kill: def $x8 killed $w8
	mov	x9, sp
	str	x10, [x9]
	str	x8, [x9, #8]
	mov	w0, #3                          ; =0x3
	adrp	x1, l_.str.18@PAGE
	add	x1, x1, l_.str.18@PAGEOFF
	bl	_ggml_log_internal
	.loc	0 3147 21                       ; ggml/src/ggml-cpu/ggml-cpu.c:3147:21
	ldr	x8, [sp, #40]
	.loc	0 3147 33 is_stmt 0             ; ggml/src/ggml-cpu/ggml-cpu.c:3147:33
	ldr	w8, [x8, #344]
